Certificate:
    Data:
        Version: 3 (0x2)
        Serial Number: 1 (0x1)
        Signature Algorithm: sha256WithRSAEncryption
        Issuer: C=US, ST=CA, O=Internet Widgits Pty Ltd, CN=foo.bar.com
        Validity
            Not Before: Sep 25 23:15:48 2019 GMT
            Not After : Jul  9 23:15:48 2293 GMT
        Subject: C=US, ST=CA, L=DUMMYCITY, O=Internet Widgits Pty Ltd, CN=foo.bar.com
        Subject Public Key Info:
            Public Key Algorithm: rsaEncryption
                RSA Public-Key: (4096 bit)
                Modulus:
                    00:ec:3f:24:2d:91:3a:bd:c3:fc:15:72:42:b3:fb:
                    28:e6:04:a3:be:26:20:e6:ea:30:a8:aa:48:78:36:
                    0e:0b:99:29:3b:4b:f9:f1:d5:bf:bd:0c:13:7c:ea:
                    52:06:f4:bc:34:9e:2b:c0:b4:82:2c:87:fa:2f:e2:
                    cd:7c:d7:b9:e1:8f:04:71:6d:85:77:ae:18:40:e4:
                    b1:3a:4a:6b:e5:33:bf:3e:65:db:cf:94:64:87:1a:
                    20:46:c0:37:3a:9f:93:3f:d4:4f:ac:c4:e4:e0:28:
                    b6:0f:28:53:2a:cf:b9:fe:50:f2:ef:47:dc:7e:b6:
                    60:c2:47:85:b8:cb:ca:48:5b:fa:9f:8a:97:30:01:
                    f4:b3:51:0f:68:e1:60:ab:2f:a0:ad:fc:f0:10:4f:
                    60:e1:92:db:be:83:04:5c:40:87:ce:51:3e:9a:9e:
                    d6:1c:1b:19:cb:8c:c2:6c:57:74:6f:7b:af:94:3d:
                    53:ad:17:a5:99:69:7c:41:f5:3e:7a:5b:48:c7:78:
                    ff:d7:3b:a8:1f:f7:30:e7:83:26:78:e2:cb:a2:8f:
                    58:92:61:cd:ca:e9:b8:d1:80:c0:40:58:e9:d8:d3:
                    42:64:82:8f:e4:0c:b9:b1:36:db:9f:65:3f:3f:5b:
                    24:59:31:b3:60:0c:fa:41:5a:1b:b8:9d:ec:99:37:
                    90:fa:b5:e7:3f:cb:7c:e0:f9:ed:ea:27:ce:15:24:
                    c7:77:3b:45:45:2d:19:8e:2e:7f:65:0e:85:df:66:
                    50:69:24:2c:a4:6a:07:e5:3f:eb:28:84:53:94:4d:
                    5f:9c:a8:65:a6:50:4c:c0:35:06:40:6a:a5:62:b1:
                    93:60:e5:1c:85:28:34:9b:29:81:6f:e2:4f:cd:15:
                    30:b9:19:d7:4b:bb:30:0c:4b:2d:64:fe:3b:dd:0e:
                    a4:25:2c:4a:5c:de:d7:74:1f:5e:93:7b:1c:e8:c8:
                    fa:72:1f:4a:eb:8d:3f:98:e4:55:98:b8:e0:8a:29:
                    92:33:af:75:6b:05:84:05:d3:0c:2c:07:78:bc:0e:
                    b2:6d:a7:00:35:c4:53:1f:7b:e6:ba:07:72:a8:24:
                    c1:0a:a7:c4:46:e6:f2:6f:3a:79:23:00:0b:b8:e5:
                    1f:e0:e2:ee:c6:13:a3:57:d9:86:1a:95:f7:a3:04:
                    f1:46:d5:5f:21:d2:aa:d2:30:fb:f6:cb:e0:da:24:
                    c6:c3:30:2f:d2:1f:21:fe:bc:0f:99:ac:ac:9b:65:
                    9b:e4:83:9a:00:b8:2f:40:fc:3b:42:d3:7a:e8:b7:
                    52:d7:f4:67:2a:a5:f7:eb:78:f1:0a:56:8b:56:12:
                    d5:48:d8:48:70:ab:b8:69:5a:21:d3:71:b0:59:9d:
                    17:b4:4b
                Exponent: 65537 (0x10001)
        X509v3 extensions:
            X509v3 Subject Key Identifier: 
                C0:82:DA:FA:69:46:30:AE:FF:6F:CD:BB:93:49:94:A6:D0:E2:17:EB
            X509v3 Authority Key Identifier: 
                keyid:1E:42:8E:BB:8C:C6:DA:C3:07:3A:3F:61:21:22:0F:29:25:9B:96:5D

            X509v3 Basic Constraints: 
                CA:FALSE
            X509v3 Key Usage: 
                Digital Signature, Key Encipherment
    Signature Algorithm: sha256WithRSAEncryption
         78:34:17:05:9f:d0:76:9b:d8:46:b2:c6:5d:9a:95:78:40:86:
         bc:d2:50:8b:0d:f4:c3:81:fb:a7:8d:d2:1f:ac:80:1e:ec:65:
         80:b5:47:fa:ee:79:af:5b:b0:62:6b:02:74:15:66:10:55:bc:
         67:30:36:57:3b:ca:71:90:bf:7b:fb:20:6d:0f:b8:f8:06:49:
         67:26:78:7a:6a:7e:84:a7:8a:c7:04:3d:4d:d7:5c:dd:c7:f3:
         01:85:1d:19:31:fc:0a:15:28:82:6d:6c:9a:9f:11:3a:0e:fc:
         fb:d2:d1:07:5c:0b:88:97:e2:24:5f:2f:75:50:c0:a9:b3:1e:
         53:cf:e8:8c:a0:46:61:2a:0c:05:8e:30:e3:76:bf:16:2b:17:
         3e:60:7c:1f:17:23:be:d9:fa:38:5d:ed:3e:d0:07:97:bf:16:
         00:d6:8e:cd:2c:54:67:89:2c:b8:23:d2:a0:bd:de:66:a0:d6:
         fc:c4:bd:0e:96:53:66:61:05:9d:3f:b3:1f:9b:1e:b3:bd:02:
         e4:04:53:1c:45:a7:69:d4:d8:44:5a:ce:3a:f5:5d:34:5e:cf:
         9f:de:ac:62:b5:a3:95:d4:3d:82:09:8c:80:e5:ff:93:a6:b9:
         ea:a4:e8:b6:f1:f5:f9:a0:4f:c3:9f:2e:98:b8:38:d1:2c:56:
         31:51:2a:21:02:10:28:c9:0b:ec:08:4b:4d:4c:06:44:04:e5:
         41:52:d5:da:d5:f3:21:e9:bc:79:de:ba:dc:f4:89:ba:0f:1e:
         d5:f4:b6:a0:9b:f7:c8:4e:04:d0:6d:36:06:a7:9d:62:dd:bd:
         a8:d5:bf:d7:6a:6f:0e:7f:7a:4e:da:8e:c5:a4:3b:a1:a9:20:
         4a:0f:23:49:33:34:0c:19:22:8d:b2:5d:99:34:3f:3f:63:31:
         fc:d9:af:8e:18:67:2f:03:d9:2e:c0:e9:b3:ea:78:bb:84:cd:
         3a:a1:84:d2:d4:25:69:7e:f3:c9:cf:bf:8e:ed:98:da:6d:b9:
         72:ac:b9:a2:cd:f5:46:f2:84:c2:61:0d:b5:f5:d0:f8:ba:04:
         c7:76:1d:7e:b8:ba:53:84:7c:b0:ca:3a:d2:d3:5b:e7:52:7d:
         bd:29:99:53:7f:0a:95:67:ab:63:2f:38:a7:ae:13:03:a3:94:
         34:4f:36:eb:cd:cb:25:d5:ce:98:61:fe:38:f3:9f:29:37:59:
         b7:c3:ae:09:5e:59:b9:ff:91:0c:31:a2:31:23:3c:f3:21:29:
         a5:3c:dd:58:0a:c7:25:90:c5:fb:96:94:d2:c6:07:a0:7a:ad:
         1a:a1:6b:96:0b:e1:f7:35:02:3e:34:dc:5b:97:15:4b:24:3a:
         08:95:91:8d:5c:1d:fc:2b
-----BEGIN CERTIFICATE-----
MIIFkTCCA3mgAwIBAgIBATANBgkqhkiG9w0BAQsFADBTMQswCQYDVQQGEwJVUzEL
MAkGA1UECAwCQ0ExITAfBgNVBAoMGEludGVybmV0IFdpZGdpdHMgUHR5IEx0ZDEU
MBIGA1UEAwwLZm9vLmJhci5jb20wIBcNMTkwOTI1MjMxNTQ4WhgPMjI5MzA3MDky
MzE1NDhaMGcxCzAJBgNVBAYTAlVTMQswCQYDVQQIDAJDQTESMBAGA1UEBwwJRFVN
TVlDSVRZMSEwHwYDVQQKDBhJbnRlcm5ldCBXaWRnaXRzIFB0eSBMdGQxFDASBgNV
BAMMC2Zvby5iYXIuY29tMIICIjANBgkqhkiG9w0BAQEFAAOCAg8AMIICCgKCAgEA
7D8kLZE6vcP8FXJCs/so5gSjviYg5uowqKpIeDYOC5kpO0v58dW/vQwTfOpSBvS8
NJ4rwLSCLIf6L+LNfNe54Y8EcW2Fd64YQOSxOkpr5TO/PmXbz5RkhxogRsA3Op+T
P9RPrMTk4Ci2DyhTKs+5/lDy70fcfrZgwkeFuMvKSFv6n4qXMAH0s1EPaOFgqy+g
rfzwEE9g4ZLbvoMEXECHzlE+mp7WHBsZy4zCbFd0b3uvlD1TrRelmWl8QfU+eltI
x3j/1zuoH/cw54MmeOLLoo9YkmHNyum40YDAQFjp2NNCZIKP5Ay5sTbbn2U/P1sk
WTGzYAz6QVobuJ3smTeQ+rXnP8t84Pnt6ifOFSTHdztFRS0Zji5/ZQ6F32ZQaSQs
pGoH5T/rKIRTlE1fnKhlplBMwDUGQGqlYrGTYOUchSg0mymBb+JPzRUwuRnXS7sw
DEstZP473Q6kJSxKXN7XdB9ek3sc6Mj6ch9K640/mORVmLjgiimSM691awWEBdMM
LAd4vA6ybacANcRTH3vmugdyqCTBCqfERubybzp5IwALuOUf4OLuxhOjV9mGGpX3
owTxRtVfIdKq0jD79svg2iTGwzAv0h8h/rwPmaysm2Wb5IOaALgvQPw7QtN66LdS
1/RnKqX363jxClaLVhLVSNhIcKu4aVoh03GwWZ0XtEsCAwEAAaNaMFgwHQYDVR0O
BBYEFMCC2vppRjCu/2/Nu5NJlKbQ4hfrMB8GA1UdIwQYMBaAFB5CjruMxtrDBzo/
YSEiDyklm5ZdMAkGA1UdEwQCMAAwCwYDVR0PBAQDAgWgMA0GCSqGSIb3DQEBCwUA
A4ICAQB4NBcFn9B2m9hGssZdmpV4QIa80lCLDfTDgfunjdIfrIAe7GWAtUf67nmv
W7BiawJ0FWYQVbxnMDZXO8pxkL97+yBtD7j4BklnJnh6an6Ep4rHBD1N11zdx/MB
hR0ZMfwKFSiCbWyanxE6Dvz70tEHXAuIl+IkXy91UMCpsx5Tz+iMoEZhKgwFjjDj
dr8WKxc+YHwfFyO+2fo4Xe0+0AeXvxYA1o7NLFRniSy4I9Kgvd5moNb8xL0OllNm
YQWdP7Mfmx6zvQLkBFMcRadp1NhEWs469V00Xs+f3qxitaOV1D2CCYyA5f+Tprnq
pOi28fX5oE/Dny6YuDjRLFYxUSohAhAoyQvsCEtNTAZEBOVBUtXa1fMh6bx53rrc
9Im6Dx7V9Lagm/fITgTQbTYGp51i3b2o1b/Xam8Of3pO2o7FpDuhqSBKDyNJMzQM
GSKNsl2ZND8/YzH82a+OGGcvA9kuwOmz6ni7hM06oYTS1CVpfvPJz7+O7Zjabbly
rLmizfVG8oTCYQ219dD4ugTHdh1+uLpThHywyjrS01vnUn29KZlTfwqVZ6tjLzin
rhMDo5Q0Tzbrzcsl1c6YYf44858pN1m3w64JXlm5/5EMMaIxIzzzISmlPN1YCscl
kMX7lpTSxgegeq0aoWuWC+H3NQI+NNxblxVLJDoIlZGNXB38Kw==
-----END CERTIFICATE-----
