Certificate:
    Data:
        Version: 3 (0x2)
        Serial Number: 3 (0x3)
        Signature Algorithm: sha256WithRSAEncryption
        Issuer: C=US, ST=Georgia, L=Atlanta, O=Test CA, OU=Test CA Organzation, CN=Test CA Organization/emailAddress=test@example.com
        Validity
            Not Before: Aug  8 18:06:22 2024 GMT
            Not After : Dec 25 18:06:22 2051 GMT
        Subject: C=US, ST=Georgia, L=Atlanta, O=Test client, OU=Test client Organzation, CN=Test client Organization
        Subject Public Key Info:
            Public Key Algorithm: rsaEncryption
                Public-Key: (4096 bit)
                Modulus:
                    00:bf:8d:88:b7:20:0e:04:3e:5e:3a:f1:a3:78:2d:
                    a5:44:f6:68:b3:f3:ec:3c:7e:8f:cd:e2:cd:55:9c:
                    2c:a2:a6:a0:31:41:b4:10:cb:3a:a8:8e:9e:ae:b5:
                    65:13:18:02:fc:35:38:7c:5e:6d:ba:e0:13:31:f0:
                    65:bb:a6:d3:61:7c:7f:86:bd:d6:84:d2:b1:06:92:
                    fe:47:5d:dd:3e:1f:99:6c:55:6f:67:eb:44:eb:d8:
                    da:79:70:2e:d7:48:75:6f:1d:cb:bd:e6:59:17:22:
                    d7:d9:23:26:90:0c:b9:63:85:91:9f:8e:58:92:52:
                    b6:09:3a:80:b7:40:91:fe:47:b6:e8:3c:4d:44:97:
                    ef:1c:11:a7:75:e0:19:d2:79:cb:3e:5d:f9:0c:81:
                    95:63:6d:df:58:43:e5:03:62:78:52:0b:5b:5a:5c:
                    c3:d9:8e:39:15:e5:72:37:b0:3a:ce:99:67:c0:72:
                    ca:9f:65:25:7b:23:bf:87:bf:1f:a9:f5:0f:f2:bf:
                    a1:ec:43:3b:8a:67:d0:5f:61:d8:03:74:e6:b1:25:
                    91:45:70:85:d0:a2:70:65:df:4d:ed:39:6c:4d:c4:
                    fd:fe:8d:71:92:06:90:ad:19:8e:de:0b:35:e1:50:
                    79:30:6f:f6:bb:3d:74:a7:66:dd:0e:7b:d0:63:f2:
                    5d:58:dc:17:a1:a2:e4:45:4e:b7:9c:32:b8:bc:56:
                    88:31:de:6f:27:f3:56:29:54:45:07:68:f3:76:9d:
                    b7:63:c0:d7:cf:6b:11:c5:3a:d2:9f:1a:34:96:2a:
                    df:64:e1:df:fe:be:1d:4a:48:58:33:be:2e:c7:ac:
                    c7:12:6f:9a:a6:10:e5:ef:a4:ae:0b:8d:c9:56:2c:
                    49:60:ff:54:91:2c:41:05:90:74:70:3e:dd:54:58:
                    b3:83:ae:c4:b4:4e:91:0b:a5:f1:3d:e4:5a:6d:34:
                    5c:3b:ee:f6:d7:62:0b:a8:55:8f:5d:8a:ed:56:9a:
                    8d:e7:80:16:0f:97:1b:f5:eb:0d:7f:1f:9a:51:e1:
                    9b:3e:14:ac:f7:c3:36:42:06:11:7c:e9:ef:75:54:
                    ae:1b:3b:68:b7:c4:79:fd:67:5c:26:9e:a5:d4:55:
                    6c:c7:92:15:51:73:57:99:bc:de:fb:56:ab:70:db:
                    98:10:1a:63:71:9c:c3:9f:11:9f:c2:c5:8b:ac:5c:
                    52:69:c7:58:a1:b1:26:86:e3:68:85:23:17:68:62:
                    30:01:79:1a:51:d7:e9:1b:a4:da:81:b6:46:33:1e:
                    9a:2b:9b:f6:20:26:d0:21:10:b0:15:58:91:08:b5:
                    bd:b7:c0:05:c1:cf:2f:bd:3b:18:40:17:08:92:58:
                    6e:bb:bb
                Exponent: 65537 (0x10001)
        X509v3 extensions:
            X509v3 Subject Key Identifier:
                DE:03:BD:A3:0E:63:F4:97:C2:52:70:63:E8:BE:A9:DF:F1:9A:7B:56
            X509v3 Authority Key Identifier:
                50:76:C3:5C:6B:12:E1:92:0F:28:F8:F2:43:A6:80:C2:9C:E8:56:D6
            X509v3 Basic Constraints:
                CA:FALSE
            X509v3 Key Usage:
                Digital Signature, Key Encipherment
            X509v3 Subject Alternative Name:
                DNS:localhost, IP Address:0.0.0.0
    Signature Algorithm: sha256WithRSAEncryption
    Signature Value:
        92:69:25:55:69:46:6e:3b:c3:a1:9d:00:b2:6e:b5:ae:1b:5a:
        19:2a:77:7f:12:e3:f7:84:72:37:35:26:78:45:5e:90:3d:0b:
        57:6f:1f:42:05:77:ec:4b:0c:29:dd:d7:db:02:cb:b7:2f:7b:
        cc:81:4a:cc:71:2f:54:aa:3a:27:e3:8e:cd:87:76:c1:5f:60:
        b6:34:0c:16:ef:fc:b6:ae:61:44:6b:b2:e1:db:86:15:e4:24:
        db:47:48:f2:29:14:fb:61:0b:10:97:b1:b2:79:c3:69:dc:f3:
        65:e9:15:a6:89:17:34:46:83:b1:a6:89:4f:12:e0:69:27:66:
        f8:89:df:36:21:59:a9:a5:e5:6a:8b:10:8c:19:39:cf:6e:61:
        a5:43:6f:34:b4:e1:79:7a:0a:f9:1d:2d:06:66:cb:a0:91:9c:
        04:85:4f:0b:3d:c1:54:a8:06:d3:89:2e:16:5c:f2:29:c5:f7:
        6e:d9:4b:ca:81:65:96:3c:ba:66:8e:40:16:a3:20:ca:ed:5a:
        ea:72:97:7a:2c:c4:b6:b5:c2:00:83:fb:1b:8a:d0:72:85:49:
        88:ad:81:9e:87:42:31:99:1a:39:ad:b5:ff:24:b5:e0:90:07:
        08:2e:1d:4a:a7:01:ef:97:9a:07:d4:e6:09:f5:c8:36:37:ce:
        e3:b2:94:2a:5e:95:e1:6a:06:68:d1:31:24:da:b4:fe:ce:af:
        a5:23:87:bc:7e:35:54:dd:c3:77:a5:44:95:43:a0:b1:f5:c4:
        f8:98:4d:a3:fc:33:ef:7a:d7:4b:5b:ae:de:2b:1f:7a:a1:3f:
        df:85:6b:97:57:4d:fa:b1:1a:79:4b:a7:96:62:09:99:b0:54:
        f1:46:65:dd:3a:31:bc:1b:07:97:ff:e7:1b:0a:d4:82:68:62:
        cc:66:9c:06:d4:18:70:3b:71:82:2d:76:bf:e7:56:88:4f:d9:
        5e:1b:46:9c:f9:9c:15:bc:73:ca:f5:e5:44:3d:f1:e4:b9:55:
        e6:06:80:e2:0d:4f:ba:19:e2:01:29:da:5b:6f:1f:79:6a:6c:
        d4:e8:c2:e1:12:c2:13:d0:5a:63:1d:35:f1:36:d4:1b:48:26:
        72:18:df:5f:7e:30:8d:86:42:cf:22:90:db:f8:6c:9d:b0:e7:
        3b:a1:0d:8a:b1:d9:de:a1:d0:4b:de:33:a2:fc:6c:cc:b0:7d:
        a6:57:43:fe:db:2a:44:e3:6c:68:ff:c8:82:91:19:68:f0:c5:
        6b:9d:3b:4c:f8:2d:8f:0e:44:04:79:4e:99:ec:08:c6:e6:25:
        90:5b:2d:16:18:94:fe:0b:86:9b:01:f2:40:66:ec:fa:ac:28:
        ba:33:fc:58:c1:8e:a2:06
-----BEGIN CERTIFICATE-----
MIIGIjCCBAqgAwIBAgIBAzANBgkqhkiG9w0BAQsFADCBoTELMAkGA1UEBhMCVVMx
EDAOBgNVBAgMB0dlb3JnaWExEDAOBgNVBAcMB0F0bGFudGExEDAOBgNVBAoMB1Rl
c3QgQ0ExHDAaBgNVBAsME1Rlc3QgQ0EgT3JnYW56YXRpb24xHTAbBgNVBAMMFFRl
c3QgQ0EgT3JnYW5pemF0aW9uMR8wHQYJKoZIhvcNAQkBFhB0ZXN0QGV4YW1wbGUu
Y29tMCAXDTI0MDgwODE4MDYyMloYDzIwNTExMjI1MTgwNjIyWjCBjDELMAkGA1UE
BhMCVVMxEDAOBgNVBAgMB0dlb3JnaWExEDAOBgNVBAcMB0F0bGFudGExFDASBgNV
BAoMC1Rlc3QgY2xpZW50MSAwHgYDVQQLDBdUZXN0IGNsaWVudCBPcmdhbnphdGlv
bjEhMB8GA1UEAwwYVGVzdCBjbGllbnQgT3JnYW5pemF0aW9uMIICIjANBgkqhkiG
9w0BAQEFAAOCAg8AMIICCgKCAgEAv42ItyAOBD5eOvGjeC2lRPZos/PsPH6PzeLN
VZwsoqagMUG0EMs6qI6errVlExgC/DU4fF5tuuATMfBlu6bTYXx/hr3WhNKxBpL+
R13dPh+ZbFVvZ+tE69jaeXAu10h1bx3LveZZFyLX2SMmkAy5Y4WRn45YklK2CTqA
t0CR/ke26DxNRJfvHBGndeAZ0nnLPl35DIGVY23fWEPlA2J4UgtbWlzD2Y45FeVy
N7A6zplnwHLKn2UleyO/h78fqfUP8r+h7EM7imfQX2HYA3TmsSWRRXCF0KJwZd9N
7TlsTcT9/o1xkgaQrRmO3gs14VB5MG/2uz10p2bdDnvQY/JdWNwXoaLkRU63nDK4
vFaIMd5vJ/NWKVRFB2jzdp23Y8DXz2sRxTrSnxo0lirfZOHf/r4dSkhYM74ux6zH
Em+aphDl76SuC43JVixJYP9UkSxBBZB0cD7dVFizg67EtE6RC6XxPeRabTRcO+72
12ILqFWPXYrtVpqN54AWD5cb9esNfx+aUeGbPhSs98M2QgYRfOnvdVSuGztot8R5
/WdcJp6l1FVsx5IVUXNXmbze+1arcNuYEBpjcZzDnxGfwsWLrFxSacdYobEmhuNo
hSMXaGIwAXkaUdfpG6TagbZGMx6aK5v2ICbQIRCwFViRCLW9t8AFwc8vvTsYQBcI
klhuu7sCAwEAAaN2MHQwHQYDVR0OBBYEFN4DvaMOY/SXwlJwY+i+qd/xmntWMB8G
A1UdIwQYMBaAFFB2w1xrEuGSDyj48kOmgMKc6FbWMAkGA1UdEwQCMAAwCwYDVR0P
BAQDAgWgMBoGA1UdEQQTMBGCCWxvY2FsaG9zdIcEAAAAADANBgkqhkiG9w0BAQsF
AAOCAgEAkmklVWlGbjvDoZ0Asm61rhtaGSp3fxLj94RyNzUmeEVekD0LV28fQgV3
7EsMKd3X2wLLty97zIFKzHEvVKo6J+OOzYd2wV9gtjQMFu/8tq5hRGuy4duGFeQk
20dI8ikU+2ELEJexsnnDadzzZekVpokXNEaDsaaJTxLgaSdm+InfNiFZqaXlaosQ
jBk5z25hpUNvNLTheXoK+R0tBmbLoJGcBIVPCz3BVKgG04kuFlzyKcX3btlLyoFl
ljy6Zo5AFqMgyu1a6nKXeizEtrXCAIP7G4rQcoVJiK2BnodCMZkaOa21/yS14JAH
CC4dSqcB75eaB9TmCfXINjfO47KUKl6V4WoGaNExJNq0/s6vpSOHvH41VN3Dd6VE
lUOgsfXE+JhNo/wz73rXS1uu3isfeqE/34Vrl1dN+rEaeUunlmIJmbBU8UZl3Tox
vBsHl//nGwrUgmhizGacBtQYcDtxgi12v+dWiE/ZXhtGnPmcFbxzyvXlRD3x5LlV
5gaA4g1PuhniASnaW28feWps1OjC4RLCE9BaYx018TbUG0gmchjfX34wjYZCzyKQ
2/hsnbDnO6ENirHZ3qHQS94zovxszLB9pldD/tsqRONsaP/IgpEZaPDFa507TPgt
jw5EBHlOmewIxuYlkFstFhiU/guGmwHyQGbs+qwoujP8WMGOogY=
-----END CERTIFICATE-----
