Certificate:
    Data:
        Version: 3 (0x2)
        Serial Number: 4 (0x4)
        Signature Algorithm: sha256WithRSAEncryption
        Issuer: C=US, ST=Georgia, L=Atlanta, O=Test CA, OU=Test CA Organzation, CN=Test CA Organization/emailAddress=test@example.com
        Validity
            Not Before: Aug  8 18:06:22 2024 GMT
            Not After : Dec 25 18:06:22 2051 GMT
        Subject: C=US, ST=Georgia, L=Atlanta, O=Test client, OU=Test client Organzation, CN=Test client Organization
        Subject Public Key Info:
            Public Key Algorithm: rsaEncryption
                Public-Key: (4096 bit)
                Modulus:
                    00:bf:8d:88:b7:20:0e:04:3e:5e:3a:f1:a3:78:2d:
                    a5:44:f6:68:b3:f3:ec:3c:7e:8f:cd:e2:cd:55:9c:
                    2c:a2:a6:a0:31:41:b4:10:cb:3a:a8:8e:9e:ae:b5:
                    65:13:18:02:fc:35:38:7c:5e:6d:ba:e0:13:31:f0:
                    65:bb:a6:d3:61:7c:7f:86:bd:d6:84:d2:b1:06:92:
                    fe:47:5d:dd:3e:1f:99:6c:55:6f:67:eb:44:eb:d8:
                    da:79:70:2e:d7:48:75:6f:1d:cb:bd:e6:59:17:22:
                    d7:d9:23:26:90:0c:b9:63:85:91:9f:8e:58:92:52:
                    b6:09:3a:80:b7:40:91:fe:47:b6:e8:3c:4d:44:97:
                    ef:1c:11:a7:75:e0:19:d2:79:cb:3e:5d:f9:0c:81:
                    95:63:6d:df:58:43:e5:03:62:78:52:0b:5b:5a:5c:
                    c3:d9:8e:39:15:e5:72:37:b0:3a:ce:99:67:c0:72:
                    ca:9f:65:25:7b:23:bf:87:bf:1f:a9:f5:0f:f2:bf:
                    a1:ec:43:3b:8a:67:d0:5f:61:d8:03:74:e6:b1:25:
                    91:45:70:85:d0:a2:70:65:df:4d:ed:39:6c:4d:c4:
                    fd:fe:8d:71:92:06:90:ad:19:8e:de:0b:35:e1:50:
                    79:30:6f:f6:bb:3d:74:a7:66:dd:0e:7b:d0:63:f2:
                    5d:58:dc:17:a1:a2:e4:45:4e:b7:9c:32:b8:bc:56:
                    88:31:de:6f:27:f3:56:29:54:45:07:68:f3:76:9d:
                    b7:63:c0:d7:cf:6b:11:c5:3a:d2:9f:1a:34:96:2a:
                    df:64:e1:df:fe:be:1d:4a:48:58:33:be:2e:c7:ac:
                    c7:12:6f:9a:a6:10:e5:ef:a4:ae:0b:8d:c9:56:2c:
                    49:60:ff:54:91:2c:41:05:90:74:70:3e:dd:54:58:
                    b3:83:ae:c4:b4:4e:91:0b:a5:f1:3d:e4:5a:6d:34:
                    5c:3b:ee:f6:d7:62:0b:a8:55:8f:5d:8a:ed:56:9a:
                    8d:e7:80:16:0f:97:1b:f5:eb:0d:7f:1f:9a:51:e1:
                    9b:3e:14:ac:f7:c3:36:42:06:11:7c:e9:ef:75:54:
                    ae:1b:3b:68:b7:c4:79:fd:67:5c:26:9e:a5:d4:55:
                    6c:c7:92:15:51:73:57:99:bc:de:fb:56:ab:70:db:
                    98:10:1a:63:71:9c:c3:9f:11:9f:c2:c5:8b:ac:5c:
                    52:69:c7:58:a1:b1:26:86:e3:68:85:23:17:68:62:
                    30:01:79:1a:51:d7:e9:1b:a4:da:81:b6:46:33:1e:
                    9a:2b:9b:f6:20:26:d0:21:10:b0:15:58:91:08:b5:
                    bd:b7:c0:05:c1:cf:2f:bd:3b:18:40:17:08:92:58:
                    6e:bb:bb
                Exponent: 65537 (0x10001)
        X509v3 extensions:
            X509v3 Subject Key Identifier: 
                DE:03:BD:A3:0E:63:F4:97:C2:52:70:63:E8:BE:A9:DF:F1:9A:7B:56
            X509v3 Authority Key Identifier: 
                50:76:C3:5C:6B:12:E1:92:0F:28:F8:F2:43:A6:80:C2:9C:E8:56:D6
            X509v3 Basic Constraints: 
                CA:FALSE
            X509v3 Key Usage: 
                Digital Signature, Key Encipherment
            X509v3 Subject Alternative Name: 
                DNS:localhost, IP Address:0.0.0.0
    Signature Algorithm: sha256WithRSAEncryption
    Signature Value:
        58:b7:35:45:3b:6b:5e:7d:6b:58:70:be:e6:39:96:14:2e:69:
        17:fc:a4:8e:1b:ae:ca:62:73:ec:12:92:ca:a8:1f:92:b8:1e:
        09:a5:7e:c0:49:d2:a3:29:48:2f:4c:67:ae:a6:fb:ad:7a:1b:
        2a:29:0b:75:6d:11:0f:99:8c:1d:dc:af:1c:a8:e7:cb:7c:66:
        34:de:7e:8f:e6:aa:26:6e:56:17:aa:1f:34:e9:1f:ff:7a:58:
        d2:7e:7c:65:62:56:d1:de:04:bd:71:cf:a2:6c:ad:47:cb:10:
        e8:72:b0:0a:9e:24:79:e0:1a:b6:e2:61:6f:fd:94:8b:3c:19:
        d0:8e:62:4f:a2:3a:fd:3d:97:c2:e7:93:1f:2c:aa:13:f5:c6:
        d0:03:4c:ee:90:48:94:3b:03:d9:2c:80:59:97:fb:a2:7f:00:
        23:19:51:0b:89:2a:92:36:57:94:0b:73:8b:f3:ae:5d:f0:68:
        29:ea:a1:f3:eb:83:48:f5:19:d1:42:fe:94:cd:13:37:c9:9a:
        c1:65:b3:97:eb:7e:82:f1:e3:98:c8:da:0c:41:c0:6f:4f:42:
        49:38:8b:c4:57:f4:07:cb:7f:f5:70:81:f0:72:3e:c7:e1:69:
        e3:38:e5:d0:4a:97:b2:b6:bf:25:c9:fe:91:79:39:d0:eb:04:
        a5:5d:b6:ca:4a:83:6e:9a:32:a2:6f:b1:ed:34:71:6f:9e:ee:
        ed:e4:c3:1b:07:ec:e1:d2:19:9f:f8:b0:a0:91:e6:dd:92:cf:
        2a:dd:45:b5:29:12:57:1b:6c:f2:04:37:be:4d:20:e8:f4:f4:
        2c:f1:bc:3e:76:ed:85:64:26:0f:81:c5:dc:63:f6:6e:77:fc:
        32:18:0b:a0:e4:8a:b5:af:93:d3:55:26:5d:7f:5d:a1:5d:1d:
        2e:f2:11:66:bd:5a:32:cc:80:6d:cf:c2:45:17:b4:bf:46:c6:
        99:2d:ae:1e:20:b8:21:b0:80:8f:72:25:9d:62:b6:80:71:9e:
        90:80:ef:52:19:a3:68:05:80:f9:8b:dc:f5:89:57:35:5c:1b:
        11:f0:e0:15:4e:ca:19:3c:19:61:86:8f:6b:3c:c3:d1:cf:6f:
        c5:28:88:35:7d:c8:ae:1b:98:a1:7c:b8:e8:df:36:a9:9a:9b:
        bd:71:48:c2:89:d6:5c:27:31:c9:c3:4c:71:95:67:aa:7a:c4:
        2e:7e:05:6f:d2:53:16:cc:6b:5b:64:43:ff:e5:1a:d5:47:d9:
        ff:47:1f:28:91:43:88:5d:34:ca:61:fe:38:b7:8f:35:43:51:
        78:b1:c1:2b:e2:29:2a:a1:69:bb:1f:14:2e:c5:f3:18:9d:81:
        ee:bc:d6:fc:e7:52:d6:d6
-----BEGIN CERTIFICATE-----
MIIGIjCCBAqgAwIBAgIBBDANBgkqhkiG9w0BAQsFADCBoTELMAkGA1UEBhMCVVMx
EDAOBgNVBAgMB0dlb3JnaWExEDAOBgNVBAcMB0F0bGFudGExEDAOBgNVBAoMB1Rl
c3QgQ0ExHDAaBgNVBAsME1Rlc3QgQ0EgT3JnYW56YXRpb24xHTAbBgNVBAMMFFRl
c3QgQ0EgT3JnYW5pemF0aW9uMR8wHQYJKoZIhvcNAQkBFhB0ZXN0QGV4YW1wbGUu
Y29tMCAXDTI0MDgwODE4MDYyMloYDzIwNTExMjI1MTgwNjIyWjCBjDELMAkGA1UE
BhMCVVMxEDAOBgNVBAgMB0dlb3JnaWExEDAOBgNVBAcMB0F0bGFudGExFDASBgNV
BAoMC1Rlc3QgY2xpZW50MSAwHgYDVQQLDBdUZXN0IGNsaWVudCBPcmdhbnphdGlv
bjEhMB8GA1UEAwwYVGVzdCBjbGllbnQgT3JnYW5pemF0aW9uMIICIjANBgkqhkiG
9w0BAQEFAAOCAg8AMIICCgKCAgEAv42ItyAOBD5eOvGjeC2lRPZos/PsPH6PzeLN
VZwsoqagMUG0EMs6qI6errVlExgC/DU4fF5tuuATMfBlu6bTYXx/hr3WhNKxBpL+
R13dPh+ZbFVvZ+tE69jaeXAu10h1bx3LveZZFyLX2SMmkAy5Y4WRn45YklK2CTqA
t0CR/ke26DxNRJfvHBGndeAZ0nnLPl35DIGVY23fWEPlA2J4UgtbWlzD2Y45FeVy
N7A6zplnwHLKn2UleyO/h78fqfUP8r+h7EM7imfQX2HYA3TmsSWRRXCF0KJwZd9N
7TlsTcT9/o1xkgaQrRmO3gs14VB5MG/2uz10p2bdDnvQY/JdWNwXoaLkRU63nDK4
vFaIMd5vJ/NWKVRFB2jzdp23Y8DXz2sRxTrSnxo0lirfZOHf/r4dSkhYM74ux6zH
Em+aphDl76SuC43JVixJYP9UkSxBBZB0cD7dVFizg67EtE6RC6XxPeRabTRcO+72
12ILqFWPXYrtVpqN54AWD5cb9esNfx+aUeGbPhSs98M2QgYRfOnvdVSuGztot8R5
/WdcJp6l1FVsx5IVUXNXmbze+1arcNuYEBpjcZzDnxGfwsWLrFxSacdYobEmhuNo
hSMXaGIwAXkaUdfpG6TagbZGMx6aK5v2ICbQIRCwFViRCLW9t8AFwc8vvTsYQBcI
klhuu7sCAwEAAaN2MHQwHQYDVR0OBBYEFN4DvaMOY/SXwlJwY+i+qd/xmntWMB8G
A1UdIwQYMBaAFFB2w1xrEuGSDyj48kOmgMKc6FbWMAkGA1UdEwQCMAAwCwYDVR0P
BAQDAgWgMBoGA1UdEQQTMBGCCWxvY2FsaG9zdIcEAAAAADANBgkqhkiG9w0BAQsF
AAOCAgEAWLc1RTtrXn1rWHC+5jmWFC5pF/ykjhuuymJz7BKSyqgfkrgeCaV+wEnS
oylIL0xnrqb7rXobKikLdW0RD5mMHdyvHKjny3xmNN5+j+aqJm5WF6ofNOkf/3pY
0n58ZWJW0d4EvXHPomytR8sQ6HKwCp4keeAatuJhb/2UizwZ0I5iT6I6/T2XwueT
HyyqE/XG0ANM7pBIlDsD2SyAWZf7on8AIxlRC4kqkjZXlAtzi/OuXfBoKeqh8+uD
SPUZ0UL+lM0TN8mawWWzl+t+gvHjmMjaDEHAb09CSTiLxFf0B8t/9XCB8HI+x+Fp
4zjl0EqXsra/Jcn+kXk50OsEpV22ykqDbpoyom+x7TRxb57u7eTDGwfs4dIZn/iw
oJHm3ZLPKt1FtSkSVxts8gQ3vk0g6PT0LPG8PnbthWQmD4HF3GP2bnf8MhgLoOSK
ta+T01UmXX9doV0dLvIRZr1aMsyAbc/CRRe0v0bGmS2uHiC4IbCAj3IlnWK2gHGe
kIDvUhmjaAWA+Yvc9YlXNVwbEfDgFU7KGTwZYYaPazzD0c9vxSiINX3IrhuYoXy4
6N82qZqbvXFIwonWXCcxycNMcZVnqnrELn4Fb9JTFsxrW2RD/+Ua1UfZ/0cfKJFD
iF00ymH+OLePNUNReLHBK+IpKqFpux8ULsXzGJ2B7rzW/OdS1tY=
-----END CERTIFICATE-----
