Certificate:
    Data:
        Version: 3 (0x2)
        Serial Number: 1 (0x1)
        Signature Algorithm: sha256WithRSAEncryption
        Issuer: C=US, ST=Georgia, L=Atlanta, O=Test CA, OU=Test CA Organzation, CN=Test CA Organization/emailAddress=test@example.com
        Validity
            Not Before: Aug  8 18:06:21 2024 GMT
            Not After : Dec 25 18:06:21 2051 GMT
        Subject: C=US, ST=Georgia, L=Atlanta, O=Test Server, OU=Test Server Organzation, CN=Test Server Organization
        Subject Public Key Info:
            Public Key Algorithm: rsaEncryption
                Public-Key: (4096 bit)
                Modulus:
                    00:bd:47:df:b7:d5:38:92:af:b4:69:e7:48:3b:a0:
                    7b:9e:6b:83:0e:76:91:06:06:94:a3:80:a3:73:8f:
                    50:e5:43:80:f8:f7:fb:65:7b:f0:a3:94:cc:8e:a6:
                    7e:fe:59:43:ce:80:68:6d:55:67:8e:33:aa:90:79:
                    21:ac:de:6e:f0:03:27:1e:6f:50:31:cf:d2:3e:c3:
                    8e:98:f5:bb:f9:e9:44:3f:3f:59:ae:7c:a3:b8:a7:
                    ae:94:ff:68:70:d0:fb:7b:cb:cc:35:7d:04:81:f5:
                    2b:12:78:bf:6e:1b:a3:cd:d1:74:41:41:9f:ee:02:
                    1f:b3:42:fd:c9:01:b5:28:43:ee:31:03:3a:5d:60:
                    d3:df:8f:69:1e:73:4a:c4:83:35:95:00:93:83:6e:
                    d6:b0:d2:0b:30:31:7f:95:eb:ce:c9:73:83:b9:76:
                    eb:45:f1:20:8b:75:de:81:a3:32:b0:f7:0f:21:64:
                    a7:1d:cc:3b:00:82:c8:48:74:c9:3a:0b:f9:cb:6e:
                    8c:ab:fc:b0:94:20:bd:60:06:eb:d0:12:15:55:48:
                    d7:d3:30:ef:59:67:98:df:f6:31:92:6d:63:1c:4a:
                    93:7c:97:a8:99:f6:61:e5:78:12:36:a2:24:56:37:
                    4b:38:ce:63:00:a2:26:b3:31:05:93:23:3c:c1:ed:
                    b1:fb:25:7d:fc:54:04:3a:b9:3a:f7:17:a4:58:10:
                    4f:e8:6d:90:69:49:b6:1f:1b:81:fb:f5:c7:6c:aa:
                    b3:e0:4a:b1:38:40:77:83:a2:aa:8c:e2:7c:91:a9:
                    3e:cd:43:be:90:c3:e7:b1:23:94:47:f9:68:db:e4:
                    2c:df:65:e7:88:b6:64:dc:62:d0:86:33:9b:13:64:
                    94:37:aa:0e:56:9f:a3:42:19:67:30:a1:e9:3b:5b:
                    4a:e6:e1:81:52:81:21:2a:78:ac:c1:77:77:52:fc:
                    4a:95:b9:3f:f7:e6:32:9e:59:5b:46:4c:a9:8a:12:
                    d3:2c:fc:33:73:3a:28:26:28:22:4c:1c:a9:b1:59:
                    96:ab:a5:f6:e9:e7:55:32:a8:2b:a2:33:de:a0:e2:
                    5f:77:d8:cd:d1:aa:1f:4f:c6:69:10:66:4e:9d:aa:
                    77:83:82:78:96:5a:07:21:12:db:4c:97:51:cd:ba:
                    ea:00:cd:94:97:40:b8:50:62:90:2b:8c:b0:1b:2c:
                    aa:a5:63:0c:bb:7d:d5:7d:3f:c1:4a:00:6b:cb:74:
                    fa:23:35:26:1e:26:1a:30:b2:96:bc:1b:16:2a:62:
                    96:1f:51:20:72:95:36:1a:87:20:26:9f:76:d6:84:
                    1b:67:2a:32:68:b7:e0:c7:80:75:a3:fa:b7:da:a3:
                    03:71:c1
                Exponent: 65537 (0x10001)
        X509v3 extensions:
            X509v3 Subject Key Identifier:
                4C:57:E2:72:97:CF:DC:C4:B8:4E:DB:D4:C1:C6:3D:AE:EF:D7:0A:19
            X509v3 Authority Key Identifier:
                50:76:C3:5C:6B:12:E1:92:0F:28:F8:F2:43:A6:80:C2:9C:E8:56:D6
            X509v3 Basic Constraints:
                CA:FALSE
            X509v3 Key Usage:
                Digital Signature, Key Encipherment
            X509v3 Subject Alternative Name:
                DNS:localhost, IP Address:0.0.0.0
    Signature Algorithm: sha256WithRSAEncryption
    Signature Value:
        10:9b:66:d5:4b:8f:e2:7b:25:8b:fe:5b:9c:a6:dd:4e:d5:ee:
        27:ad:a9:e5:c4:5d:9b:f9:2c:f1:d6:8d:0e:d6:9b:e6:9f:87:
        0b:14:1b:c9:a3:dc:da:82:d0:1e:e8:c5:f7:f4:ea:99:ea:01:
        f1:2e:7c:f0:07:15:28:74:15:b0:36:27:a5:3f:2d:c7:32:fc:
        81:61:44:15:9a:9a:88:20:fb:c6:d9:8a:26:61:df:e2:04:a2:
        54:98:76:90:40:98:80:d3:eb:ff:73:29:d7:2f:3f:79:ca:ba:
        c3:1b:34:53:6e:f0:da:06:f8:19:3e:97:de:34:74:d1:4c:90:
        e1:ce:6a:36:31:6e:58:d2:22:b1:5a:05:71:d8:0b:d9:c2:03:
        17:0d:98:78:f5:e2:24:7c:0a:7d:7b:49:4f:fe:31:a6:c3:0e:
        11:9e:af:6e:88:83:72:5a:34:a9:34:94:ef:6b:ee:cc:c1:71:
        5c:53:c6:dd:52:7e:a7:4c:9a:48:76:e9:72:b9:c4:26:74:87:
        64:c9:89:34:7d:bc:f2:ff:8a:ac:32:b5:3d:50:19:09:5f:30:
        19:49:6e:86:4e:84:e3:13:cc:9f:4c:a9:4a:20:89:5e:e3:91:
        ad:8d:5e:3f:ac:ea:63:f1:48:18:f2:22:e9:b6:c3:6f:dc:b4:
        46:fc:41:71:33:ee:a7:4b:33:79:11:0f:c9:81:4d:10:c3:df:
        b6:4d:75:62:74:39:e4:8d:5d:33:37:1b:91:ce:23:a3:47:15:
        58:57:5b:09:ba:4f:d5:1b:0f:4f:7b:03:10:d7:49:76:86:e0:
        69:7f:1a:7e:cb:6c:2a:80:b4:d8:9e:03:66:5c:89:3c:d3:82:
        86:d9:50:65:d9:15:51:e1:0b:3b:2f:e8:c7:44:6d:27:e3:09:
        2d:58:ce:a1:af:f9:d9:2f:0a:fd:fb:65:3d:3b:30:5a:42:b1:
        ab:34:28:20:0d:a4:31:dd:84:65:eb:87:d1:59:33:1d:db:b1:
        64:e3:e5:6f:25:1a:15:ae:f1:39:b6:cc:91:d0:82:6e:e6:82:
        9e:f0:fc:c9:41:2b:a4:d7:b5:e7:af:1e:13:46:c0:e6:04:ac:
        98:53:ab:52:f3:85:bb:95:0d:b0:fb:e0:0a:c9:5e:da:99:ec:
        63:6c:7c:78:21:12:8d:21:6b:c3:bf:6c:cb:88:dc:c3:7a:24:
        b9:4b:ba:36:63:b3:01:91:b3:07:a9:b0:1f:2c:ab:ae:d4:cd:
        a7:a2:46:c0:29:df:1f:c2:29:d4:f9:49:9e:c5:e0:ca:02:f7:
        eb:de:b8:b9:6e:1f:18:3a:6d:0f:07:0d:97:d2:16:0d:84:2c:
        81:24:c6:e6:e5:f5:e4:59
-----BEGIN CERTIFICATE-----
MIIGIjCCBAqgAwIBAgIBATANBgkqhkiG9w0BAQsFADCBoTELMAkGA1UEBhMCVVMx
EDAOBgNVBAgMB0dlb3JnaWExEDAOBgNVBAcMB0F0bGFudGExEDAOBgNVBAoMB1Rl
c3QgQ0ExHDAaBgNVBAsME1Rlc3QgQ0EgT3JnYW56YXRpb24xHTAbBgNVBAMMFFRl
c3QgQ0EgT3JnYW5pemF0aW9uMR8wHQYJKoZIhvcNAQkBFhB0ZXN0QGV4YW1wbGUu
Y29tMCAXDTI0MDgwODE4MDYyMVoYDzIwNTExMjI1MTgwNjIxWjCBjDELMAkGA1UE
BhMCVVMxEDAOBgNVBAgMB0dlb3JnaWExEDAOBgNVBAcMB0F0bGFudGExFDASBgNV
BAoMC1Rlc3QgU2VydmVyMSAwHgYDVQQLDBdUZXN0IFNlcnZlciBPcmdhbnphdGlv
bjEhMB8GA1UEAwwYVGVzdCBTZXJ2ZXIgT3JnYW5pemF0aW9uMIICIjANBgkqhkiG
9w0BAQEFAAOCAg8AMIICCgKCAgEAvUfft9U4kq+0aedIO6B7nmuDDnaRBgaUo4Cj
c49Q5UOA+Pf7ZXvwo5TMjqZ+/llDzoBobVVnjjOqkHkhrN5u8AMnHm9QMc/SPsOO
mPW7+elEPz9ZrnyjuKeulP9ocND7e8vMNX0EgfUrEni/bhujzdF0QUGf7gIfs0L9
yQG1KEPuMQM6XWDT349pHnNKxIM1lQCTg27WsNILMDF/levOyXODuXbrRfEgi3Xe
gaMysPcPIWSnHcw7AILISHTJOgv5y26Mq/ywlCC9YAbr0BIVVUjX0zDvWWeY3/Yx
km1jHEqTfJeomfZh5XgSNqIkVjdLOM5jAKImszEFkyM8we2x+yV9/FQEOrk69xek
WBBP6G2QaUm2HxuB+/XHbKqz4EqxOEB3g6KqjOJ8kak+zUO+kMPnsSOUR/lo2+Qs
32XniLZk3GLQhjObE2SUN6oOVp+jQhlnMKHpO1tK5uGBUoEhKniswXd3UvxKlbk/
9+YynllbRkypihLTLPwzczooJigiTBypsVmWq6X26edVMqgrojPeoOJfd9jN0aof
T8ZpEGZOnap3g4J4lloHIRLbTJdRzbrqAM2Ul0C4UGKQK4ywGyyqpWMMu33VfT/B
SgBry3T6IzUmHiYaMLKWvBsWKmKWH1EgcpU2GocgJp921oQbZyoyaLfgx4B1o/q3
2qMDccECAwEAAaN2MHQwHQYDVR0OBBYEFExX4nKXz9zEuE7b1MHGPa7v1woZMB8G
A1UdIwQYMBaAFFB2w1xrEuGSDyj48kOmgMKc6FbWMAkGA1UdEwQCMAAwCwYDVR0P
BAQDAgWgMBoGA1UdEQQTMBGCCWxvY2FsaG9zdIcEAAAAADANBgkqhkiG9w0BAQsF
AAOCAgEAEJtm1UuP4nsli/5bnKbdTtXuJ62p5cRdm/ks8daNDtab5p+HCxQbyaPc
2oLQHujF9/TqmeoB8S588AcVKHQVsDYnpT8txzL8gWFEFZqaiCD7xtmKJmHf4gSi
VJh2kECYgNPr/3Mp1y8/ecq6wxs0U27w2gb4GT6X3jR00UyQ4c5qNjFuWNIisVoF
cdgL2cIDFw2YePXiJHwKfXtJT/4xpsMOEZ6vboiDclo0qTSU72vuzMFxXFPG3VJ+
p0yaSHbpcrnEJnSHZMmJNH288v+KrDK1PVAZCV8wGUluhk6E4xPMn0ypSiCJXuOR
rY1eP6zqY/FIGPIi6bbDb9y0RvxBcTPup0szeREPyYFNEMPftk11YnQ55I1dMzcb
kc4jo0cVWFdbCbpP1RsPT3sDENdJdobgaX8afstsKoC02J4DZlyJPNOChtlQZdkV
UeELOy/ox0RtJ+MJLVjOoa/52S8K/ftlPTswWkKxqzQoIA2kMd2EZeuH0VkzHdux
ZOPlbyUaFa7xObbMkdCCbuaCnvD8yUErpNe1568eE0bA5gSsmFOrUvOFu5UNsPvg
Csle2pnsY2x8eCESjSFrw79sy4jcw3okuUu6NmOzAZGzB6mwHyyrrtTNp6JGwCnf
H8Ip1PlJnsXgygL36964uW4fGDptDwcNl9IWDYQsgSTG5uX15Fk=
-----END CERTIFICATE-----
