Certificate:
    Data:
        Version: 3 (0x2)
        Serial Number: 2 (0x2)
        Signature Algorithm: sha256WithRSAEncryption
        Issuer: C=US, ST=Georgia, L=Atlanta, O=Test CA, OU=Test CA Organzation, CN=Test CA Organization/emailAddress=test@example.com
        Validity
            Not Before: Aug  8 18:06:21 2024 GMT
            Not After : Dec 25 18:06:21 2051 GMT
        Subject: C=US, ST=Georgia, L=Atlanta, O=Test server, OU=Test server Organzation, CN=Test server Organization
        Subject Public Key Info:
            Public Key Algorithm: rsaEncryption
                Public-Key: (4096 bit)
                Modulus:
                    00:bd:47:df:b7:d5:38:92:af:b4:69:e7:48:3b:a0:
                    7b:9e:6b:83:0e:76:91:06:06:94:a3:80:a3:73:8f:
                    50:e5:43:80:f8:f7:fb:65:7b:f0:a3:94:cc:8e:a6:
                    7e:fe:59:43:ce:80:68:6d:55:67:8e:33:aa:90:79:
                    21:ac:de:6e:f0:03:27:1e:6f:50:31:cf:d2:3e:c3:
                    8e:98:f5:bb:f9:e9:44:3f:3f:59:ae:7c:a3:b8:a7:
                    ae:94:ff:68:70:d0:fb:7b:cb:cc:35:7d:04:81:f5:
                    2b:12:78:bf:6e:1b:a3:cd:d1:74:41:41:9f:ee:02:
                    1f:b3:42:fd:c9:01:b5:28:43:ee:31:03:3a:5d:60:
                    d3:df:8f:69:1e:73:4a:c4:83:35:95:00:93:83:6e:
                    d6:b0:d2:0b:30:31:7f:95:eb:ce:c9:73:83:b9:76:
                    eb:45:f1:20:8b:75:de:81:a3:32:b0:f7:0f:21:64:
                    a7:1d:cc:3b:00:82:c8:48:74:c9:3a:0b:f9:cb:6e:
                    8c:ab:fc:b0:94:20:bd:60:06:eb:d0:12:15:55:48:
                    d7:d3:30:ef:59:67:98:df:f6:31:92:6d:63:1c:4a:
                    93:7c:97:a8:99:f6:61:e5:78:12:36:a2:24:56:37:
                    4b:38:ce:63:00:a2:26:b3:31:05:93:23:3c:c1:ed:
                    b1:fb:25:7d:fc:54:04:3a:b9:3a:f7:17:a4:58:10:
                    4f:e8:6d:90:69:49:b6:1f:1b:81:fb:f5:c7:6c:aa:
                    b3:e0:4a:b1:38:40:77:83:a2:aa:8c:e2:7c:91:a9:
                    3e:cd:43:be:90:c3:e7:b1:23:94:47:f9:68:db:e4:
                    2c:df:65:e7:88:b6:64:dc:62:d0:86:33:9b:13:64:
                    94:37:aa:0e:56:9f:a3:42:19:67:30:a1:e9:3b:5b:
                    4a:e6:e1:81:52:81:21:2a:78:ac:c1:77:77:52:fc:
                    4a:95:b9:3f:f7:e6:32:9e:59:5b:46:4c:a9:8a:12:
                    d3:2c:fc:33:73:3a:28:26:28:22:4c:1c:a9:b1:59:
                    96:ab:a5:f6:e9:e7:55:32:a8:2b:a2:33:de:a0:e2:
                    5f:77:d8:cd:d1:aa:1f:4f:c6:69:10:66:4e:9d:aa:
                    77:83:82:78:96:5a:07:21:12:db:4c:97:51:cd:ba:
                    ea:00:cd:94:97:40:b8:50:62:90:2b:8c:b0:1b:2c:
                    aa:a5:63:0c:bb:7d:d5:7d:3f:c1:4a:00:6b:cb:74:
                    fa:23:35:26:1e:26:1a:30:b2:96:bc:1b:16:2a:62:
                    96:1f:51:20:72:95:36:1a:87:20:26:9f:76:d6:84:
                    1b:67:2a:32:68:b7:e0:c7:80:75:a3:fa:b7:da:a3:
                    03:71:c1
                Exponent: 65537 (0x10001)
        X509v3 extensions:
            X509v3 Subject Key Identifier:
                4C:57:E2:72:97:CF:DC:C4:B8:4E:DB:D4:C1:C6:3D:AE:EF:D7:0A:19
            X509v3 Authority Key Identifier:
                50:76:C3:5C:6B:12:E1:92:0F:28:F8:F2:43:A6:80:C2:9C:E8:56:D6
            X509v3 Basic Constraints:
                CA:FALSE
            X509v3 Key Usage:
                Digital Signature, Key Encipherment
            X509v3 Subject Alternative Name:
                DNS:localhost, IP Address:0.0.0.0
    Signature Algorithm: sha256WithRSAEncryption
    Signature Value:
        07:74:84:18:37:74:23:9c:c2:f1:e8:d2:44:49:57:f8:51:fa:
        cb:db:0e:42:04:6b:61:5b:60:f0:82:7a:df:1b:af:69:75:a8:
        17:62:89:18:b7:71:3e:8c:40:10:5d:2b:88:35:6a:97:9c:44:
        9f:93:24:f3:b8:d2:56:dd:2f:aa:27:55:96:67:07:fa:b1:8d:
        20:df:ea:f7:96:51:9e:46:e5:35:9a:34:53:d0:e7:60:da:a7:
        02:76:68:c2:12:6d:aa:bc:b6:81:e0:c9:96:67:b6:9e:fa:6d:
        43:63:80:19:70:49:9b:38:78:68:3d:aa:f2:5d:ec:af:45:65:
        4c:75:3c:d6:0b:92:8e:d7:7c:c9:76:55:51:ef:c6:d6:33:68:
        66:58:17:47:21:d7:14:4f:69:d1:59:1e:b2:78:bb:45:f4:24:
        8b:6b:ba:c4:83:6d:e8:11:c1:56:d8:df:84:3c:56:d2:e7:00:
        6c:b6:5c:f5:b8:33:e4:11:27:76:88:16:bd:d3:3d:ba:7b:d9:
        25:68:17:9c:0a:02:2f:d5:d0:57:b4:c9:f3:b1:9d:8e:6b:c9:
        f1:6f:8f:39:8a:ad:0b:38:07:29:9b:cb:9a:3b:06:b5:03:1a:
        83:f4:ef:1e:91:a1:4b:eb:cf:fa:89:6f:91:47:5e:f2:bc:cb:
        c2:8a:dd:7b:19:54:f4:9f:c7:54:7f:d2:e8:ea:a8:d9:c8:c1:
        6d:17:63:a3:47:30:05:5b:80:90:47:54:81:1f:0a:9b:11:48:
        c6:ee:52:80:c3:b9:75:9d:d2:ee:1b:83:43:b2:de:05:aa:52:
        d9:01:a3:f1:71:d3:23:90:28:35:25:0a:71:80:1d:ae:1a:6a:
        72:c1:2b:ee:a7:a2:72:54:f0:0e:19:87:97:a4:62:79:1a:ea:
        ec:e2:73:b1:79:d5:c7:25:4f:c7:e6:a4:55:ad:be:3d:d7:59:
        8c:fb:ee:c3:2e:75:6d:1f:65:4a:be:46:c9:4e:54:bd:2e:49:
        3e:2f:70:b6:97:eb:8a:41:f4:bb:75:64:84:f4:71:29:e3:f2:
        b2:30:75:41:5a:04:ac:a6:d1:d0:9c:4d:52:19:76:7f:0d:c7:
        08:f4:6e:cf:20:c7:3c:a6:d9:6f:72:88:46:16:0c:43:12:28:
        24:a1:d2:63:d3:04:4c:cd:12:67:1c:8f:00:e6:7b:47:0a:03:
        87:18:02:d6:bc:01:59:da:90:c4:c6:b1:72:b1:e6:a4:bc:23:
        fd:5c:cf:32:0c:d9:e0:24:83:5b:55:7a:d0:db:3c:d6:b2:9f:
        22:a1:a0:f4:48:96:fb:d6:73:a1:43:f7:46:e0:ef:dd:b1:9a:
        0e:ef:6f:1d:1a:b4:b2:d4
-----BEGIN CERTIFICATE-----
MIIGIjCCBAqgAwIBAgIBAjANBgkqhkiG9w0BAQsFADCBoTELMAkGA1UEBhMCVVMx
EDAOBgNVBAgMB0dlb3JnaWExEDAOBgNVBAcMB0F0bGFudGExEDAOBgNVBAoMB1Rl
c3QgQ0ExHDAaBgNVBAsME1Rlc3QgQ0EgT3JnYW56YXRpb24xHTAbBgNVBAMMFFRl
c3QgQ0EgT3JnYW5pemF0aW9uMR8wHQYJKoZIhvcNAQkBFhB0ZXN0QGV4YW1wbGUu
Y29tMCAXDTI0MDgwODE4MDYyMVoYDzIwNTExMjI1MTgwNjIxWjCBjDELMAkGA1UE
BhMCVVMxEDAOBgNVBAgMB0dlb3JnaWExEDAOBgNVBAcMB0F0bGFudGExFDASBgNV
BAoMC1Rlc3Qgc2VydmVyMSAwHgYDVQQLDBdUZXN0IHNlcnZlciBPcmdhbnphdGlv
bjEhMB8GA1UEAwwYVGVzdCBzZXJ2ZXIgT3JnYW5pemF0aW9uMIICIjANBgkqhkiG
9w0BAQEFAAOCAg8AMIICCgKCAgEAvUfft9U4kq+0aedIO6B7nmuDDnaRBgaUo4Cj
c49Q5UOA+Pf7ZXvwo5TMjqZ+/llDzoBobVVnjjOqkHkhrN5u8AMnHm9QMc/SPsOO
mPW7+elEPz9ZrnyjuKeulP9ocND7e8vMNX0EgfUrEni/bhujzdF0QUGf7gIfs0L9
yQG1KEPuMQM6XWDT349pHnNKxIM1lQCTg27WsNILMDF/levOyXODuXbrRfEgi3Xe
gaMysPcPIWSnHcw7AILISHTJOgv5y26Mq/ywlCC9YAbr0BIVVUjX0zDvWWeY3/Yx
km1jHEqTfJeomfZh5XgSNqIkVjdLOM5jAKImszEFkyM8we2x+yV9/FQEOrk69xek
WBBP6G2QaUm2HxuB+/XHbKqz4EqxOEB3g6KqjOJ8kak+zUO+kMPnsSOUR/lo2+Qs
32XniLZk3GLQhjObE2SUN6oOVp+jQhlnMKHpO1tK5uGBUoEhKniswXd3UvxKlbk/
9+YynllbRkypihLTLPwzczooJigiTBypsVmWq6X26edVMqgrojPeoOJfd9jN0aof
T8ZpEGZOnap3g4J4lloHIRLbTJdRzbrqAM2Ul0C4UGKQK4ywGyyqpWMMu33VfT/B
SgBry3T6IzUmHiYaMLKWvBsWKmKWH1EgcpU2GocgJp921oQbZyoyaLfgx4B1o/q3
2qMDccECAwEAAaN2MHQwHQYDVR0OBBYEFExX4nKXz9zEuE7b1MHGPa7v1woZMB8G
A1UdIwQYMBaAFFB2w1xrEuGSDyj48kOmgMKc6FbWMAkGA1UdEwQCMAAwCwYDVR0P
BAQDAgWgMBoGA1UdEQQTMBGCCWxvY2FsaG9zdIcEAAAAADANBgkqhkiG9w0BAQsF
AAOCAgEAB3SEGDd0I5zC8ejSRElX+FH6y9sOQgRrYVtg8IJ63xuvaXWoF2KJGLdx
PoxAEF0riDVql5xEn5Mk87jSVt0vqidVlmcH+rGNIN/q95ZRnkblNZo0U9DnYNqn
AnZowhJtqry2geDJlme2nvptQ2OAGXBJmzh4aD2q8l3sr0VlTHU81guSjtd8yXZV
Ue/G1jNoZlgXRyHXFE9p0Vkesni7RfQki2u6xINt6BHBVtjfhDxW0ucAbLZc9bgz
5BEndogWvdM9unvZJWgXnAoCL9XQV7TJ87GdjmvJ8W+POYqtCzgHKZvLmjsGtQMa
g/TvHpGhS+vP+olvkUde8rzLwordexlU9J/HVH/S6Oqo2cjBbRdjo0cwBVuAkEdU
gR8KmxFIxu5SgMO5dZ3S7huDQ7LeBapS2QGj8XHTI5AoNSUKcYAdrhpqcsEr7qei
clTwDhmHl6RieRrq7OJzsXnVxyVPx+akVa2+PddZjPvuwy51bR9lSr5GyU5UvS5J
Pi9wtpfrikH0u3VkhPRxKePysjB1QVoErKbR0JxNUhl2fw3HCPRuzyDHPKbZb3KI
RhYMQxIoJKHSY9METM0SZxyPAOZ7RwoDhxgC1rwBWdqQxMaxcrHmpLwj/VzPMgzZ
4CSDW1V60Ns81rKfIqGg9EiW+9ZzoUP3RuDv3bGaDu9vHRq0stQ=
-----END CERTIFICATE-----
