Certificate:
    Data:
        Version: 3 (0x2)
        Serial Number: 1 (0x1)
        Signature Algorithm: sha256WithRSAEncryption
        Issuer: C=US, ST=VA, O=Internet Widgits Pty Ltd, CN=foo.bar.hoo.ca.com
        Validity
            Not Before: Nov  7 17:11:57 2020 GMT
            Not After : Mar 25 17:11:57 2048 GMT
        Subject: C=US, ST=CA, O=Internet Widgits Pty Ltd, CN=foo.bar.another.client.com
        Subject Public Key Info:
            Public Key Algorithm: rsaEncryption
                RSA Public-Key: (4096 bit)
                Modulus:
                    00:ec:00:a0:69:4b:11:ae:30:21:15:64:4d:c3:cb:
                    94:67:58:44:9a:5e:ca:c3:82:75:eb:6f:8d:b7:33:
                    ca:e0:69:5f:98:1f:17:e5:7d:04:dd:f9:af:63:3b:
                    84:0e:48:2e:23:fc:b4:de:02:64:ad:0c:8f:6b:70:
                    15:fe:00:98:47:cb:c3:ff:5c:fb:b4:22:cd:36:18:
                    6e:4a:6d:de:0e:7a:90:d8:3d:af:76:1d:17:07:67:
                    79:7f:ab:59:af:1f:37:99:b9:46:ea:db:b3:a4:a2:
                    8a:e9:b3:41:83:04:71:82:2f:88:51:5d:b3:ba:7d:
                    72:d3:ef:97:47:89:b4:d0:78:f1:d6:ef:8a:09:94:
                    19:54:ae:08:8c:77:49:2f:6b:c6:c9:56:0c:fa:ec:
                    77:76:f0:83:d8:83:d0:4d:b5:f5:d9:e3:12:85:5c:
                    64:c5:82:60:73:20:fa:8a:36:00:f4:f2:bc:cf:48:
                    08:94:5f:2b:39:88:4c:56:f5:65:30:67:41:78:99:
                    7e:26:f5:ab:e7:3d:b0:a3:8c:55:c5:e1:12:39:23:
                    00:68:88:c2:b1:43:2f:61:7c:d4:08:35:52:28:5d:
                    93:3e:84:c9:8d:0a:37:df:75:06:f4:ae:1e:2a:1d:
                    e3:f9:0f:26:80:ad:4e:6a:c3:6a:0c:2e:0f:31:0f:
                    b2:39:b0:98:aa:1e:96:c7:0b:a3:70:6c:35:52:82:
                    56:0f:27:e1:07:d5:89:a6:97:58:97:6f:9f:4f:db:
                    0e:e6:ef:fd:62:f4:c3:d5:bb:af:ee:f7:5b:26:6d:
                    79:c0:46:71:94:d1:6f:ea:2a:61:78:1c:c5:09:4d:
                    93:35:bf:6d:1d:26:49:2e:84:9e:8f:48:9c:93:e0:
                    ef:bb:c7:85:f1:20:2b:8e:1e:da:18:76:db:c6:42:
                    4f:87:ed:e9:44:90:ab:99:ea:d7:3a:89:f9:be:b5:
                    3a:b8:5b:50:ec:7c:54:ce:d9:ff:9e:94:30:97:25:
                    e5:ce:13:b4:ee:06:56:39:0b:d4:51:77:a2:e8:3f:
                    b4:e7:60:2a:03:44:3a:93:ed:8a:f0:d7:90:f7:92:
                    fe:e9:19:57:37:24:20:f5:9c:64:d0:fc:13:d1:3e:
                    a5:1d:ea:14:23:8d:f6:ee:c0:5c:f4:27:82:87:90:
                    6c:80:6d:ff:6f:1d:ab:2e:83:0f:73:4a:78:3d:40:
                    7f:e6:f9:55:b4:ea:e8:83:f7:86:e0:c8:c1:d9:96:
                    a0:7d:38:08:72:88:d2:c5:90:e3:3e:2a:f9:64:26:
                    52:6e:20:79:20:ea:99:1b:75:65:4b:12:93:22:09:
                    f9:ec:1b:af:74:a4:3c:a3:df:07:d0:50:95:ad:7e:
                    55:60:25
                Exponent: 65537 (0x10001)
        X509v3 extensions:
            X509v3 Subject Key Identifier: 
                D5:43:51:8B:A8:4C:84:D0:C8:DE:29:14:1B:15:7A:62:01:ED:FF:EC
            X509v3 Authority Key Identifier: 
                keyid:B4:19:08:1C:FC:10:23:C5:30:86:22:BC:CB:B1:5F:AD:EA:7A:5D:F1

            X509v3 Basic Constraints: 
                CA:FALSE
            X509v3 Key Usage: 
                Digital Signature, Key Encipherment
    Signature Algorithm: sha256WithRSAEncryption
         61:a0:89:19:3e:e8:3d:35:bf:6e:5d:0c:d0:ec:36:85:d4:27:
         41:6b:21:0e:5e:ed:e9:e2:17:ef:2b:19:5d:1b:4a:52:7f:e5:
         66:db:24:40:4d:cb:f8:9d:92:5e:10:67:68:d0:f8:56:ab:da:
         3c:8c:4f:02:07:9e:22:49:45:de:bd:d2:92:e8:ef:9d:f2:68:
         97:0d:10:43:c7:b7:73:9e:76:14:7b:1d:b5:8e:df:df:7b:0d:
         b3:48:36:21:98:67:3f:41:55:c7:26:09:99:fc:bc:92:8c:9a:
         ac:64:76:9d:b2:b1:ca:41:e5:59:79:8d:76:f1:b4:bb:2e:28:
         8b:bb:73:c4:83:0e:f9:6e:62:2c:49:d8:00:e5:87:c7:53:1b:
         45:ec:29:a4:1c:20:82:bf:d1:f4:a4:23:98:b2:1e:41:a0:ee:
         1a:0c:7e:bd:00:84:f5:17:05:1e:a6:7b:fd:75:ee:b9:6d:6b:
         31:2a:0d:97:fa:57:86:57:25:44:8c:5e:e9:bc:78:30:13:77:
         70:87:78:e1:7a:fb:26:db:b9:95:d0:04:c9:93:26:a2:96:b5:
         2b:d5:d3:61:22:b3:ca:31:51:15:6d:51:0a:fb:22:6e:ca:16:
         61:a5:91:9c:e0:39:de:cb:ad:fe:23:51:15:34:42:ae:ac:82:
         80:9a:12:f6:f4:a6:8b:65:b5:f3:21:7b:78:ab:e2:53:83:1c:
         08:83:a5:1a:26:f4:a8:f2:cd:19:d1:85:99:99:45:c8:46:35:
         48:c4:fa:44:80:b0:04:67:48:36:c9:5e:44:fa:41:6e:a7:f2:
         eb:22:9e:f8:d3:f2:0d:79:1b:33:78:c4:d0:60:e0:93:5f:69:
         6f:cf:f0:df:04:3d:5b:b3:ac:09:30:ae:32:ea:0f:9f:7b:2c:
         69:bf:f3:fd:6d:7c:a2:25:dc:15:82:df:e0:a5:84:64:39:26:
         43:28:0f:cb:2e:7f:fe:9e:c2:7e:20:d3:ca:6d:96:1c:0e:e1:
         b1:ac:0d:2e:4d:97:6f:14:39:65:1a:65:9f:13:2d:0a:28:f3:
         2e:6d:30:af:c6:82:cb:33:20:86:17:de:52:0c:9b:a1:fb:2a:
         59:ca:b1:18:b7:56:06:52:46:9c:8d:36:c6:2e:61:f2:02:2b:
         ec:72:15:40:3a:1f:e9:ad:ca:5e:19:aa:1a:73:b5:d4:4d:b9:
         d5:b2:24:8c:b6:eb:e6:cc:b2:0e:12:c6:26:52:f7:7a:e7:2c:
         0b:1f:bc:24:1c:76:66:bb:2f:1d:ec:26:9e:53:5b:12:0a:e4:
         ae:e3:bc:dd:21:a0:aa:cc:e4:9a:1d:8e:f7:16:36:b2:ed:97:
         81:5a:48:22:a8:f6:6a:2d
-----BEGIN CERTIFICATE-----
MIIFkTCCA3mgAwIBAgIBATANBgkqhkiG9w0BAQsFADBaMQswCQYDVQQGEwJVUzEL
MAkGA1UECAwCVkExITAfBgNVBAoMGEludGVybmV0IFdpZGdpdHMgUHR5IEx0ZDEb
MBkGA1UEAwwSZm9vLmJhci5ob28uY2EuY29tMB4XDTIwMTEwNzE3MTE1N1oXDTQ4
MDMyNTE3MTE1N1owYjELMAkGA1UEBhMCVVMxCzAJBgNVBAgMAkNBMSEwHwYDVQQK
DBhJbnRlcm5ldCBXaWRnaXRzIFB0eSBMdGQxIzAhBgNVBAMMGmZvby5iYXIuYW5v
dGhlci5jbGllbnQuY29tMIICIjANBgkqhkiG9w0BAQEFAAOCAg8AMIICCgKCAgEA
7ACgaUsRrjAhFWRNw8uUZ1hEml7Kw4J162+NtzPK4GlfmB8X5X0E3fmvYzuEDkgu
I/y03gJkrQyPa3AV/gCYR8vD/1z7tCLNNhhuSm3eDnqQ2D2vdh0XB2d5f6tZrx83
mblG6tuzpKKK6bNBgwRxgi+IUV2zun1y0++XR4m00Hjx1u+KCZQZVK4IjHdJL2vG
yVYM+ux3dvCD2IPQTbX12eMShVxkxYJgcyD6ijYA9PK8z0gIlF8rOYhMVvVlMGdB
eJl+JvWr5z2wo4xVxeESOSMAaIjCsUMvYXzUCDVSKF2TPoTJjQo333UG9K4eKh3j
+Q8mgK1OasNqDC4PMQ+yObCYqh6WxwujcGw1UoJWDyfhB9WJppdYl2+fT9sO5u/9
YvTD1buv7vdbJm15wEZxlNFv6ipheBzFCU2TNb9tHSZJLoSej0ick+Dvu8eF8SAr
jh7aGHbbxkJPh+3pRJCrmerXOon5vrU6uFtQ7HxUztn/npQwlyXlzhO07gZWOQvU
UXei6D+052AqA0Q6k+2K8NeQ95L+6RlXNyQg9Zxk0PwT0T6lHeoUI4327sBc9CeC
h5BsgG3/bx2rLoMPc0p4PUB/5vlVtOrog/eG4MjB2ZagfTgIcojSxZDjPir5ZCZS
biB5IOqZG3VlSxKTIgn57BuvdKQ8o98H0FCVrX5VYCUCAwEAAaNaMFgwHQYDVR0O
BBYEFNVDUYuoTITQyN4pFBsVemIB7f/sMB8GA1UdIwQYMBaAFLQZCBz8ECPFMIYi
vMuxX63qel3xMAkGA1UdEwQCMAAwCwYDVR0PBAQDAgWgMA0GCSqGSIb3DQEBCwUA
A4ICAQBhoIkZPug9Nb9uXQzQ7DaF1CdBayEOXu3p4hfvKxldG0pSf+Vm2yRATcv4
nZJeEGdo0PhWq9o8jE8CB54iSUXevdKS6O+d8miXDRBDx7dznnYUex21jt/few2z
SDYhmGc/QVXHJgmZ/LySjJqsZHadsrHKQeVZeY128bS7LiiLu3PEgw75bmIsSdgA
5YfHUxtF7CmkHCCCv9H0pCOYsh5BoO4aDH69AIT1FwUepnv9de65bWsxKg2X+leG
VyVEjF7pvHgwE3dwh3jhevsm27mV0ATJkyailrUr1dNhIrPKMVEVbVEK+yJuyhZh
pZGc4Dney63+I1EVNEKurIKAmhL29KaLZbXzIXt4q+JTgxwIg6UaJvSo8s0Z0YWZ
mUXIRjVIxPpEgLAEZ0g2yV5E+kFup/LrIp740/INeRszeMTQYOCTX2lvz/DfBD1b
s6wJMK4y6g+feyxpv/P9bXyiJdwVgt/gpYRkOSZDKA/LLn/+nsJ+INPKbZYcDuGx
rA0uTZdvFDllGmWfEy0KKPMubTCvxoLLMyCGF95SDJuh+ypZyrEYt1YGUkacjTbG
LmHyAivschVAOh/prcpeGaoac7XUTbnVsiSMtuvmzLIOEsYmUvd65ywLH7wkHHZm
uy8d7CaeU1sSCuSu47zdIaCqzOSaHY73Fjay7ZeBWkgiqPZqLQ==
-----END CERTIFICATE-----
