Certificate:
    Data:
        Version: 3 (0x2)
        Serial Number: 5 (0x5)
        Signature Algorithm: sha256WithRSAEncryption
        Issuer: C=US, ST=VA, O=Internet Widgits Pty Ltd, CN=foo.bar.hoo.ca.com
        Validity
            Not Before: Nov 15 19:15:24 2019 GMT
            Not After : Aug 29 19:15:24 2293 GMT
        Subject: C=US, ST=CA, O=Internet Widgits Pty Ltd, CN=foo.bar.hoo.com
        Subject Public Key Info:
            Public Key Algorithm: rsaEncryption
                RSA Public-Key: (4096 bit)
                Modulus:
                    00:c3:3e:b5:d8:bc:73:5f:b4:e5:60:a8:73:0e:8c:
                    9c:ff:28:2c:a9:bc:68:12:8b:ae:3e:aa:7b:f5:b9:
                    2d:b3:73:f8:9e:64:e9:8e:26:ca:36:11:5f:f9:73:
                    39:f0:19:55:d1:ba:f4:4e:2b:ab:ee:01:3b:eb:f0:
                    5f:6e:b3:24:39:c1:f5:f0:bd:6a:d0:6c:56:cf:96:
                    33:5d:05:48:c4:b5:b3:3e:55:8e:89:8e:6b:79:c5:
                    3b:99:1c:e3:03:69:0f:74:a2:97:7b:bf:c4:11:1d:
                    da:d7:cb:87:0d:90:25:64:29:3e:f6:62:bc:f9:a5:
                    56:de:56:e1:27:77:51:1a:30:f1:88:89:01:c2:c8:
                    35:40:d3:2e:2d:30:ef:d7:de:3b:28:15:4a:a4:a9:
                    ba:f0:40:f0:79:3a:16:f9:ae:52:32:c3:52:ad:53:
                    9c:94:07:d5:9b:63:50:90:ff:f1:8c:fd:4e:59:b8:
                    5e:0a:73:9b:b4:b7:60:e1:7c:07:02:50:74:f3:48:
                    69:6a:74:7c:b2:96:70:86:19:2f:82:4c:95:57:aa:
                    4c:2f:38:75:8b:9b:a1:3e:7d:dd:da:bf:d2:a4:a3:
                    3a:02:17:43:35:0a:52:03:f5:fb:1a:a1:60:28:c3:
                    e7:41:eb:4a:0c:f4:43:6e:81:64:ba:41:8d:61:40:
                    97:9f:e2:67:51:7c:2d:2f:17:72:b9:a0:27:5c:fc:
                    e3:b6:a6:de:f4:1e:34:95:2c:c5:7f:13:c4:bb:25:
                    76:3e:3b:39:b6:36:d0:60:17:1e:c7:01:9c:3d:65:
                    9a:96:4c:d8:4c:10:85:32:76:c7:6e:53:64:80:c9:
                    33:1a:44:39:a7:c7:69:d3:64:c3:4c:06:20:56:d2:
                    eb:d9:65:56:02:65:c4:ba:72:db:89:c4:00:3f:89:
                    f4:75:d5:6d:83:ce:ad:66:fb:73:f8:8e:bb:dc:01:
                    c0:4f:86:c1:57:45:68:34:3f:55:1f:0e:ef:82:3f:
                    9a:26:1c:9c:8d:88:5e:27:ab:b6:b9:58:a7:c5:b0:
                    36:0f:99:ba:d8:cc:89:41:ed:ab:26:b8:8a:16:17:
                    21:67:b6:4d:83:d1:dd:53:de:67:ab:76:a3:af:f8:
                    60:99:29:6a:0a:4f:f2:ad:32:54:69:33:8c:f2:ca:
                    9b:d6:59:cd:8c:69:cd:3f:d3:8f:05:28:d1:29:04:
                    bf:b2:de:98:0f:9d:62:13:6d:fe:de:be:2d:c6:be:
                    d6:f8:10:cb:b5:b3:4f:ad:a4:60:36:b3:19:29:29:
                    b9:b4:37:5d:13:e7:36:cb:f9:fa:7f:9e:63:7e:f3:
                    05:ee:9e:e6:4d:ff:e3:46:a4:7b:1f:12:72:89:b6:
                    10:5f:bd
                Exponent: 65537 (0x10001)
        X509v3 extensions:
            X509v3 Subject Key Identifier: 
                7F:9D:9C:C6:86:DF:9E:07:93:94:EF:18:2D:0A:0A:50:AA:1F:A2:B7
            X509v3 Authority Key Identifier: 
                keyid:B4:19:08:1C:FC:10:23:C5:30:86:22:BC:CB:B1:5F:AD:EA:7A:5D:F1

            X509v3 Basic Constraints: 
                CA:FALSE
            X509v3 Key Usage: 
                Digital Signature, Key Encipherment
    Signature Algorithm: sha256WithRSAEncryption
         31:b0:6d:25:5e:8e:9b:73:01:ac:08:b9:a6:70:8e:de:18:fd:
         b8:2b:bb:2d:7c:c0:84:20:c8:d2:32:8a:d9:ca:24:b9:75:e2:
         c8:91:40:db:0a:4e:e5:05:bd:a6:bb:22:85:3c:8e:be:d3:65:
         0a:7f:cd:c0:fc:eb:94:61:91:30:53:1d:4d:9f:4e:d7:38:0f:
         ab:d9:3d:a1:1c:48:c1:e6:3c:35:cc:db:47:31:a6:b2:44:b8:
         db:34:6c:28:20:49:ff:e1:2b:cd:48:e1:7e:78:7a:05:0a:31:
         3d:dd:45:51:95:06:ad:5c:8c:0e:ff:0c:98:77:4f:5c:42:dc:
         da:d8:d3:30:58:e4:3c:ef:b3:64:3f:f2:e2:19:d9:36:04:1a:
         b4:87:c2:1b:89:5d:52:17:fb:27:a2:83:2d:55:6d:1f:80:d5:
         a7:ea:20:b0:0a:23:4d:0f:48:36:ae:42:f9:fc:c8:86:f4:69:
         30:e8:cd:52:34:62:ee:b9:fd:12:4b:ba:4d:a2:75:47:d4:b6:
         b2:dd:ea:6f:6b:a2:86:f5:c0:3b:06:09:c1:5f:30:96:b6:79:
         32:45:b3:d1:8c:0a:d2:58:d3:39:2f:21:ba:7a:3e:a7:38:cc:
         88:16:1e:75:62:30:fd:79:a3:1d:a9:bd:df:66:dc:b9:f5:79:
         bc:fb:bd:bd:e5:f0:46:60:d1:03:7b:58:06:00:f5:d8:36:a0:
         a9:b0:2d:4f:4e:1b:6f:17:f0:d9:51:0c:25:a2:48:ac:e3:f4:
         a6:52:59:84:83:e3:79:df:ca:9e:5c:24:d3:f9:55:39:8c:3e:
         2a:91:3f:53:0b:d4:22:55:c7:a3:80:41:05:e3:41:7d:16:d1:
         af:a2:1e:f7:fa:ee:f3:a7:6e:19:66:af:dd:23:39:5a:33:f9:
         61:3d:e7:90:e2:9a:0e:8e:8b:a0:3b:27:55:e2:ed:09:c5:ca:
         71:14:95:10:be:03:8e:2a:6d:48:c5:85:a5:f4:39:0e:2d:f5:
         64:50:f4:b6:35:f9:63:58:d0:5d:09:01:f9:bc:99:60:dc:25:
         94:36:3b:ee:b9:9d:23:2f:52:80:9c:f1:e4:9b:5f:a4:37:c9:
         63:32:cf:ca:d6:2a:b7:3b:c8:10:54:21:ca:03:d3:ae:0e:da:
         cd:08:fe:71:10:f8:db:d4:e6:cf:d2:59:9b:3d:96:4a:a8:80:
         42:69:ff:7f:4b:4b:52:42:aa:e7:e9:6e:7f:84:98:f5:13:16:
         14:b0:4e:22:a6:80:03:29:6b:2e:33:ac:05:b5:75:25:58:72:
         34:ff:ad:95:f0:52:9e:46:81:91:7b:6c:12:b1:43:af:70:06:
         03:d8:c8:cb:4a:85:f2:37
-----BEGIN CERTIFICATE-----
MIIFiDCCA3CgAwIBAgIBBTANBgkqhkiG9w0BAQsFADBaMQswCQYDVQQGEwJVUzEL
MAkGA1UECAwCVkExITAfBgNVBAoMGEludGVybmV0IFdpZGdpdHMgUHR5IEx0ZDEb
MBkGA1UEAwwSZm9vLmJhci5ob28uY2EuY29tMCAXDTE5MTExNTE5MTUyNFoYDzIy
OTMwODI5MTkxNTI0WjBXMQswCQYDVQQGEwJVUzELMAkGA1UECAwCQ0ExITAfBgNV
BAoMGEludGVybmV0IFdpZGdpdHMgUHR5IEx0ZDEYMBYGA1UEAwwPZm9vLmJhci5o
b28uY29tMIICIjANBgkqhkiG9w0BAQEFAAOCAg8AMIICCgKCAgEAwz612LxzX7Tl
YKhzDoyc/ygsqbxoEouuPqp79bkts3P4nmTpjibKNhFf+XM58BlV0br0Tiur7gE7
6/BfbrMkOcH18L1q0GxWz5YzXQVIxLWzPlWOiY5recU7mRzjA2kPdKKXe7/EER3a
18uHDZAlZCk+9mK8+aVW3lbhJ3dRGjDxiIkBwsg1QNMuLTDv1947KBVKpKm68EDw
eToW+a5SMsNSrVOclAfVm2NQkP/xjP1OWbheCnObtLdg4XwHAlB080hpanR8spZw
hhkvgkyVV6pMLzh1i5uhPn3d2r/SpKM6AhdDNQpSA/X7GqFgKMPnQetKDPRDboFk
ukGNYUCXn+JnUXwtLxdyuaAnXPzjtqbe9B40lSzFfxPEuyV2Pjs5tjbQYBcexwGc
PWWalkzYTBCFMnbHblNkgMkzGkQ5p8dp02TDTAYgVtLr2WVWAmXEunLbicQAP4n0
ddVtg86tZvtz+I673AHAT4bBV0VoND9VHw7vgj+aJhycjYheJ6u2uVinxbA2D5m6
2MyJQe2rJriKFhchZ7ZNg9HdU95nq3ajr/hgmSlqCk/yrTJUaTOM8sqb1lnNjGnN
P9OPBSjRKQS/st6YD51iE23+3r4txr7W+BDLtbNPraRgNrMZKSm5tDddE+c2y/n6
f55jfvMF7p7mTf/jRqR7HxJyibYQX70CAwEAAaNaMFgwHQYDVR0OBBYEFH+dnMaG
354Hk5TvGC0KClCqH6K3MB8GA1UdIwQYMBaAFLQZCBz8ECPFMIYivMuxX63qel3x
MAkGA1UdEwQCMAAwCwYDVR0PBAQDAgWgMA0GCSqGSIb3DQEBCwUAA4ICAQAxsG0l
Xo6bcwGsCLmmcI7eGP24K7stfMCEIMjSMorZyiS5deLIkUDbCk7lBb2muyKFPI6+
02UKf83A/OuUYZEwUx1Nn07XOA+r2T2hHEjB5jw1zNtHMaayRLjbNGwoIEn/4SvN
SOF+eHoFCjE93UVRlQatXIwO/wyYd09cQtza2NMwWOQ877NkP/LiGdk2BBq0h8Ib
iV1SF/snooMtVW0fgNWn6iCwCiNND0g2rkL5/MiG9Gkw6M1SNGLuuf0SS7pNonVH
1Lay3epva6KG9cA7BgnBXzCWtnkyRbPRjArSWNM5LyG6ej6nOMyIFh51YjD9eaMd
qb3fZty59Xm8+7295fBGYNEDe1gGAPXYNqCpsC1PThtvF/DZUQwlokis4/SmUlmE
g+N538qeXCTT+VU5jD4qkT9TC9QiVcejgEEF40F9FtGvoh73+u7zp24ZZq/dIzla
M/lhPeeQ4poOjougOydV4u0JxcpxFJUQvgOOKm1IxYWl9DkOLfVkUPS2NfljWNBd
CQH5vJlg3CWUNjvuuZ0jL1KAnPHkm1+kN8ljMs/K1iq3O8gQVCHKA9OuDtrNCP5x
EPjb1ObP0lmbPZZKqIBCaf9/S0tSQqrn6W5/hJj1ExYUsE4ipoADKWsuM6wFtXUl
WHI0/62V8FKeRoGRe2wSsUOvcAYD2MjLSoXyNw==
-----END CERTIFICATE-----
