Certificate:
    Data:
        Version: 3 (0x2)
        Serial Number: 6 (0x6)
        Signature Algorithm: sha256WithRSAEncryption
        Issuer: C=US, ST=CA, O=Internet Widgits Pty Ltd, CN=foo.bar.server2.trust.com
        Validity
            Not Before: Jan  9 22:47:15 2020 GMT
            Not After : Oct 23 22:47:15 2293 GMT
        Subject: C=US, ST=CA, O=Internet Widgits Pty Ltd, CN=foo.bar.client2.com
        Subject Public Key Info:
            Public Key Algorithm: rsaEncryption
                RSA Public-Key: (4096 bit)
                Modulus:
                    00:b9:3e:c6:3b:cb:d6:77:4b:17:d4:8b:91:27:f4:
                    62:01:60:8d:01:2f:0a:a8:b1:d6:e3:59:d6:25:3a:
                    a1:7f:2f:5d:ef:02:f9:6f:4f:72:db:75:ce:0b:22:
                    a2:05:7c:e0:7c:a3:d3:c8:fa:87:c0:6c:a9:47:00:
                    ed:52:2b:ba:95:36:36:1a:d3:59:1e:a7:30:a7:48:
                    38:7f:1a:7a:3f:84:cf:83:f0:fe:60:61:9e:c0:46:
                    ce:44:b5:37:83:ef:14:6c:9a:ea:3b:fe:37:8a:ab:
                    ea:28:59:43:f0:d7:1a:a0:57:a6:5e:a7:3f:46:95:
                    92:fb:44:77:68:ee:41:ca:57:1b:de:4c:80:ea:16:
                    b7:25:c5:b2:e5:d4:47:a7:bb:8d:f5:53:9d:a3:0e:
                    d0:eb:59:5e:7a:6d:8e:a1:8e:f3:b7:b1:4a:8b:f1:
                    8a:01:f1:e1:14:85:dc:91:ce:25:7a:fd:db:17:b8:
                    15:60:34:4b:f5:35:df:bd:22:65:b9:85:4a:7a:39:
                    74:c0:88:c9:15:61:62:a8:4b:b6:ae:87:0b:2d:5f:
                    2b:c6:13:c5:9c:1b:63:c0:23:73:6f:24:5e:e1:f9:
                    f5:ed:82:81:51:90:4a:08:7f:6e:4f:bd:27:00:b2:
                    b4:be:a8:0b:65:95:22:a4:c7:24:5b:07:5f:3c:66:
                    55:2d:af:ec:d3:f7:ca:e6:07:44:09:6f:da:a2:f3:
                    c9:4b:1f:9b:d7:e0:0c:6c:a0:be:4d:4c:6c:c5:3a:
                    bb:0d:a1:c4:82:75:42:ba:c0:10:d2:93:a4:0e:4e:
                    41:9a:c2:3c:68:ae:17:92:ec:4b:4f:ca:ef:09:7c:
                    b2:6d:16:31:15:31:67:78:02:0a:57:6b:60:4e:7f:
                    cb:0a:27:a5:cd:dd:d9:29:a5:a2:e8:d8:f5:e9:8c:
                    a3:16:72:9d:b9:94:3e:ef:b1:70:27:2e:16:0f:06:
                    f9:50:81:99:a2:aa:b2:74:d8:b9:24:0d:08:f4:ff:
                    16:c1:2b:32:ad:d1:7d:c2:db:ed:e5:8c:52:26:ed:
                    8c:04:af:86:9e:a1:5f:48:81:20:79:bc:57:58:25:
                    89:85:02:ba:e1:5f:66:e4:4a:30:2e:6d:3b:89:2c:
                    4f:e9:02:6a:e9:9e:b3:6c:7e:9d:1b:a9:37:3e:bf:
                    06:ec:ce:d6:d7:6e:e3:e2:5c:2a:fd:98:dd:4d:59:
                    e8:43:be:44:fe:ee:0a:64:fe:fc:e3:4d:88:23:27:
                    46:a7:f0:b5:80:c4:d8:2c:ad:02:a9:68:a7:d5:64:
                    74:b9:14:21:68:c9:f5:3c:62:73:ed:b2:be:10:89:
                    1f:d0:1d:1b:8a:ef:5e:6b:4b:08:15:25:4d:9c:b6:
                    f4:2a:0b
                Exponent: 65537 (0x10001)
        X509v3 extensions:
            X509v3 Subject Key Identifier: 
                E0:27:7D:90:FC:81:7F:F3:EE:97:CE:65:A2:AD:D2:1E:CC:D5:2B:0F
            X509v3 Authority Key Identifier: 
                keyid:63:88:EA:4D:D0:3E:EF:5E:F8:43:91:75:40:E4:16:AB:15:B3:32:B9

            X509v3 Basic Constraints: 
                CA:FALSE
            X509v3 Key Usage: 
                Digital Signature, Key Encipherment
    Signature Algorithm: sha256WithRSAEncryption
         8c:81:8f:65:38:2c:db:69:34:26:47:62:b7:5d:4e:67:41:c2:
         67:b2:97:72:51:84:f5:73:8e:cf:9d:0f:a2:91:1e:ec:e4:72:
         6f:08:da:26:06:c0:f0:11:fd:b8:ac:23:c7:cf:35:ac:d0:90:
         e3:da:f0:8b:7b:55:16:00:5f:82:92:40:07:12:d1:ae:06:13:
         c0:5d:7c:9b:64:d7:35:86:59:c3:8d:cd:b9:a8:17:03:2e:b5:
         d4:8b:18:11:cf:8d:90:74:8f:12:f6:53:99:66:d8:50:b6:c6:
         ef:c8:e3:bc:26:74:67:cb:6d:34:bd:c6:58:38:ef:4b:5e:56:
         80:37:2d:25:64:31:96:6e:8d:13:ff:21:63:c9:ec:8f:b6:05:
         5a:8b:b5:ae:88:50:af:00:c4:c7:9d:9b:88:a3:05:6c:63:85:
         46:1a:b1:6b:32:11:cc:0c:a6:75:44:a2:39:c6:58:c8:2a:f8:
         08:8c:9a:12:c2:49:e0:03:da:fa:f7:67:a3:7b:91:71:46:24:
         71:83:3f:a9:a0:a9:4f:e5:77:9d:a4:49:2b:0e:69:dd:47:93:
         b9:4d:82:3d:f7:12:b1:02:0e:ec:4c:98:76:c2:48:81:30:68:
         7c:04:90:e7:a7:e5:0f:44:cf:48:e3:04:1b:9c:4a:0f:20:25:
         ce:74:13:83:96:d8:78:69:a0:1c:e4:9e:8d:1b:0c:9f:e8:43:
         29:72:82:96:98:6e:8e:8b:0c:0e:18:4e:dd:62:e8:e9:5c:77:
         64:40:5b:c3:44:3d:21:0f:3f:ef:04:c8:83:f0:af:cc:be:9c:
         b5:6b:32:c3:26:66:a0:06:bc:7b:b0:c8:54:8f:0a:d7:57:bb:
         c7:d9:7a:7f:3e:61:ab:64:03:cc:32:44:a1:71:6f:9a:cc:80:
         a6:e6:de:2d:8e:8a:2f:ca:bf:63:42:24:de:3f:c2:47:a4:e2:
         fb:3d:6f:70:3f:6f:cb:bd:61:40:af:c9:59:75:99:39:9d:65:
         e4:89:48:fc:14:1c:ad:03:fc:5f:a2:69:be:4d:a1:a3:ad:6b:
         e7:f8:8d:13:64:f8:76:7d:04:af:61:f9:9c:39:68:68:99:bc:
         ec:53:b9:d1:e7:f3:c2:c9:87:42:f0:26:8f:47:c3:6d:de:2a:
         f5:df:b4:58:f2:1e:f5:6c:29:0b:dd:de:ea:1a:88:21:a4:d1:
         bb:7f:54:c5:cd:75:71:4e:ef:d0:50:f8:ff:a2:0f:d5:02:fd:
         51:52:86:b8:30:db:4f:e0:3b:f1:91:45:72:49:df:a4:17:97:
         25:ca:12:9d:61:9d:29:2c:e4:5f:da:c7:3c:ee:4c:65:5d:2f:
         38:a6:7d:8b:52:af:af:18
-----BEGIN CERTIFICATE-----
MIIFkzCCA3ugAwIBAgIBBjANBgkqhkiG9w0BAQsFADBhMQswCQYDVQQGEwJVUzEL
MAkGA1UECAwCQ0ExITAfBgNVBAoMGEludGVybmV0IFdpZGdpdHMgUHR5IEx0ZDEi
MCAGA1UEAwwZZm9vLmJhci5zZXJ2ZXIyLnRydXN0LmNvbTAgFw0yMDAxMDkyMjQ3
MTVaGA8yMjkzMTAyMzIyNDcxNVowWzELMAkGA1UEBhMCVVMxCzAJBgNVBAgMAkNB
MSEwHwYDVQQKDBhJbnRlcm5ldCBXaWRnaXRzIFB0eSBMdGQxHDAaBgNVBAMME2Zv
by5iYXIuY2xpZW50Mi5jb20wggIiMA0GCSqGSIb3DQEBAQUAA4ICDwAwggIKAoIC
AQC5PsY7y9Z3SxfUi5En9GIBYI0BLwqosdbjWdYlOqF/L13vAvlvT3Lbdc4LIqIF
fOB8o9PI+ofAbKlHAO1SK7qVNjYa01kepzCnSDh/Gno/hM+D8P5gYZ7ARs5EtTeD
7xRsmuo7/jeKq+ooWUPw1xqgV6Zepz9GlZL7RHdo7kHKVxveTIDqFrclxbLl1Een
u431U52jDtDrWV56bY6hjvO3sUqL8YoB8eEUhdyRziV6/dsXuBVgNEv1Nd+9ImW5
hUp6OXTAiMkVYWKoS7auhwstXyvGE8WcG2PAI3NvJF7h+fXtgoFRkEoIf25PvScA
srS+qAtllSKkxyRbB188ZlUtr+zT98rmB0QJb9qi88lLH5vX4AxsoL5NTGzFOrsN
ocSCdUK6wBDSk6QOTkGawjxorheS7EtPyu8JfLJtFjEVMWd4AgpXa2BOf8sKJ6XN
3dkppaLo2PXpjKMWcp25lD7vsXAnLhYPBvlQgZmiqrJ02LkkDQj0/xbBKzKt0X3C
2+3ljFIm7YwEr4aeoV9IgSB5vFdYJYmFArrhX2bkSjAubTuJLE/pAmrpnrNsfp0b
qTc+vwbsztbXbuPiXCr9mN1NWehDvkT+7gpk/vzjTYgjJ0an8LWAxNgsrQKpaKfV
ZHS5FCFoyfU8YnPtsr4QiR/QHRuK715rSwgVJU2ctvQqCwIDAQABo1owWDAdBgNV
HQ4EFgQU4Cd9kPyBf/Pul85loq3SHszVKw8wHwYDVR0jBBgwFoAUY4jqTdA+7174
Q5F1QOQWqxWzMrkwCQYDVR0TBAIwADALBgNVHQ8EBAMCBaAwDQYJKoZIhvcNAQEL
BQADggIBAIyBj2U4LNtpNCZHYrddTmdBwmeyl3JRhPVzjs+dD6KRHuzkcm8I2iYG
wPAR/bisI8fPNazQkOPa8It7VRYAX4KSQAcS0a4GE8BdfJtk1zWGWcONzbmoFwMu
tdSLGBHPjZB0jxL2U5lm2FC2xu/I47wmdGfLbTS9xlg470teVoA3LSVkMZZujRP/
IWPJ7I+2BVqLta6IUK8AxMedm4ijBWxjhUYasWsyEcwMpnVEojnGWMgq+AiMmhLC
SeAD2vr3Z6N7kXFGJHGDP6mgqU/ld52kSSsOad1Hk7lNgj33ErECDuxMmHbCSIEw
aHwEkOen5Q9Ez0jjBBucSg8gJc50E4OW2HhpoBzkno0bDJ/oQylygpaYbo6LDA4Y
Tt1i6Olcd2RAW8NEPSEPP+8EyIPwr8y+nLVrMsMmZqAGvHuwyFSPCtdXu8fZen8+
YatkA8wyRKFxb5rMgKbm3i2Oii/Kv2NCJN4/wkek4vs9b3A/b8u9YUCvyVl1mTmd
ZeSJSPwUHK0D/F+iab5NoaOta+f4jRNk+HZ9BK9h+Zw5aGiZvOxTudHn88LJh0Lw
Jo9Hw23eKvXftFjyHvVsKQvd3uoaiCGk0bt/VMXNdXFO79BQ+P+iD9UC/VFShrgw
20/gO/GRRXJJ36QXlyXKEp1hnSks5F/axzzuTGVdLzimfYtSr68Y
-----END CERTIFICATE-----
