Certificate:
    Data:
        Version: 3 (0x2)
        Serial Number: 4 (0x4)
        Signature Algorithm: sha256WithRSAEncryption
        Issuer: C=US, ST=CA, L=SVL, O=Internet Widgits Pty Ltd
        Validity
            Not Before: Dec 11 18:12:58 2020 GMT
            Not After : Apr 28 18:12:58 2048 GMT
        Subject: C=US, ST=Illinois, L=Chicago, O=Example, Co., CN=localhost
        Subject Public Key Info:
            Public Key Algorithm: rsaEncryption
                RSA Public-Key: (4096 bit)
                Modulus:
                    00:df:3c:4f:a4:c5:9d:a2:a0:a6:d7:cf:4e:cf:3b:
                    01:c2:e3:88:4e:93:78:ef:0a:8a:19:3b:03:c7:95:
                    42:a3:9f:01:e3:0d:f8:ff:0b:4c:d9:1b:6b:a3:ec:
                    7f:19:70:e9:ea:05:0c:47:7c:61:5c:a3:3e:d6:0b:
                    16:b1:07:80:aa:f0:2e:58:4a:5a:9c:04:89:45:7c:
                    b9:72:04:f4:60:b8:85:0e:af:d4:9e:62:67:54:4d:
                    3d:96:aa:c5:4b:22:23:ac:98:db:2e:3e:0d:a3:22:
                    ff:4b:f1:f7:9b:c1:4b:c3:67:cb:48:eb:25:1a:8d:
                    c3:61:57:3f:52:f6:d6:a9:94:bb:ff:1e:97:5a:d8:
                    2c:60:bb:4b:cc:3b:a2:f4:50:a2:6c:ed:a6:ac:c2:
                    53:e4:3e:bd:6e:2c:b4:d2:d0:c6:36:b9:78:d3:e8:
                    79:be:88:63:fa:81:23:c8:78:44:70:56:5f:45:48:
                    3c:3e:49:af:9e:82:f8:75:cb:04:3f:89:a7:49:eb:
                    e9:a2:2f:2c:3c:d1:35:d5:f6:5d:4f:9d:1a:12:da:
                    27:5a:56:9b:54:d4:f5:1f:0b:a0:61:82:30:98:f1:
                    11:b9:e8:fd:c2:64:bc:5f:c8:4e:0e:f5:a9:fd:aa:
                    72:dd:86:4d:ff:65:98:0e:c0:bf:45:8b:e7:90:93:
                    61:0c:ff:c8:3f:4b:05:70:1f:ec:52:00:51:c0:dc:
                    1c:04:8d:3d:09:cc:f6:54:75:47:e9:83:96:aa:72:
                    1a:6c:d5:f0:39:cd:95:7a:34:71:da:92:94:b0:a2:
                    88:05:23:1c:e6:4c:ab:81:d2:39:bb:b3:52:b1:44:
                    22:fd:8b:75:81:c0:43:d1:ca:64:37:f1:7a:1d:da:
                    92:8b:58:52:76:a1:0a:ef:e8:41:d1:a5:bc:18:45:
                    35:f2:ca:d6:18:fa:62:c4:3b:c5:94:64:85:54:93:
                    4f:09:71:05:f8:eb:9b:61:65:12:ec:40:34:1e:df:
                    8c:ca:4e:89:79:51:6d:17:2a:3a:da:80:b7:58:6a:
                    f3:94:29:1f:7c:12:6c:44:79:58:1f:55:72:4f:fe:
                    33:50:5f:a8:68:10:7a:ef:f4:3c:e5:17:f3:b2:fe:
                    0d:a0:88:a7:85:1e:eb:42:0f:25:ae:2e:b4:72:86:
                    65:12:f5:7f:2e:dc:08:0a:bf:2c:a3:e8:40:c3:8f:
                    8d:d9:7a:c1:f6:26:e2:cf:05:48:7a:88:b3:61:50:
                    09:8d:60:b6:af:94:be:b3:5c:7e:c1:ad:df:0e:ed:
                    3b:14:17:4b:42:4c:2c:a7:02:f1:b3:9b:7e:8d:04:
                    b5:95:eb:5a:2c:fb:82:25:2f:1e:8e:cb:de:fc:03:
                    b1:e3:31
                Exponent: 65537 (0x10001)
        X509v3 extensions:
            X509v3 Subject Key Identifier: 
                93:69:27:F4:60:71:19:C6:11:2C:A7:4A:D5:74:29:CB:F4:84:4C:84
            X509v3 Authority Key Identifier: 
                keyid:5A:A5:DA:B1:99:D4:E5:0E:E6:1E:94:EA:FF:FC:62:E2:ED:09:F1:06

            X509v3 Basic Constraints: 
                CA:FALSE
            X509v3 Key Usage: 
                Digital Signature, Key Encipherment
            X509v3 Subject Alternative Name: 
                DNS:localhost, IP Address:127.0.0.1, IP Address:0:0:0:0:0:0:0:1
    Signature Algorithm: sha256WithRSAEncryption
         23:8d:9e:b8:5f:d2:53:35:86:26:83:f6:26:58:a2:06:59:d4:
         0f:a6:f7:37:a0:d1:b4:35:80:21:02:89:ac:b0:f5:fc:f9:6f:
         a4:34:14:2e:c6:f7:f5:3e:3a:40:14:3f:24:d1:91:6d:6d:a6:
         ac:c6:5b:9d:d8:77:f9:55:5d:66:a8:c0:41:e0:d6:2c:89:11:
         98:77:96:24:1d:b3:74:76:90:c0:6c:f1:2a:dd:4e:00:dc:ef:
         b6:75:9a:55:29:ee:a1:89:ac:38:bb:4c:ea:6f:45:65:56:05:
         d8:a5:6b:61:55:03:52:0a:4b:0e:8c:30:e1:16:a7:b3:2a:9c:
         a1:ec:ea:9c:90:cc:66:ae:d2:6f:eb:19:f4:71:c4:8c:37:79:
         39:de:81:cd:5c:06:3f:ec:c6:d1:c2:19:58:87:60:ea:9f:96:
         59:6d:b2:ba:c4:7c:be:f5:28:44:db:31:0f:3a:46:cf:60:c3:
         1a:fc:7e:ba:91:65:27:4a:34:68:17:f8:f5:c5:05:70:e4:e2:
         b4:75:ac:29:c6:43:0f:b5:72:c3:2d:2d:02:62:1f:9b:c1:d0:
         ed:f5:2e:63:3e:fe:2e:b9:f3:93:17:aa:a3:24:af:cf:e0:30:
         91:68:03:ed:b1:8f:0d:4c:c8:cd:e9:36:69:9a:80:30:5c:56:
         6d:fa:80:f4:8e:01:c6:d5:0f:29:73:e7:e9:57:e2:7a:a3:e4:
         ff:29:2a:b3:c2:7d:58:fe:d8:12:6b:f0:35:d7:f5:ed:41:6a:
         19:67:35:1c:e5:51:fc:11:73:fd:9c:77:f4:b2:96:2c:39:ad:
         ef:d2:5d:9b:bd:89:60:14:34:e5:c0:69:08:4f:7c:d6:1c:fc:
         9b:4f:5e:8e:28:e6:4a:f6:89:34:41:9b:ac:b2:56:a8:25:b0:
         b3:33:45:38:b2:ca:bd:b3:a9:03:b1:52:65:9a:1b:a6:df:94:
         89:0a:2c:e7:26:c5:b2:b9:47:53:21:ff:67:a7:90:b1:3f:ae:
         90:e9:71:41:ed:b1:4a:b9:cf:5c:e5:e3:b2:d0:00:83:a8:09:
         f8:17:06:be:8f:92:73:c3:65:6c:8a:d1:7b:65:cf:84:8d:3c:
         30:43:5c:d8:6a:95:6b:96:e2:de:1f:80:c8:ff:b3:79:18:a7:
         95:e0:8e:de:57:2d:26:3c:b3:23:d1:89:6a:2a:99:01:39:0a:
         b0:3f:57:83:73:47:72:26:0b:a8:77:a3:94:9d:52:65:35:70:
         32:74:65:76:bf:72:b7:e4:cc:9b:52:1a:68:a6:ab:99:f5:e2:
         5f:fb:96:d0:ab:5f:43:d3:69:2d:62:80:c4:a1:2a:30:1a:3f:
         c2:d2:64:f4:d8:89:a5:51
-----BEGIN CERTIFICATE-----
MIIFrTCCA5WgAwIBAgIBBDANBgkqhkiG9w0BAQsFADBLMQswCQYDVQQGEwJVUzEL
MAkGA1UECAwCQ0ExDDAKBgNVBAcMA1NWTDEhMB8GA1UECgwYSW50ZXJuZXQgV2lk
Z2l0cyBQdHkgTHRkMB4XDTIwMTIxMTE4MTI1OFoXDTQ4MDQyODE4MTI1OFowXTEL
MAkGA1UEBhMCVVMxETAPBgNVBAgMCElsbGlub2lzMRAwDgYDVQQHDAdDaGljYWdv
MRUwEwYDVQQKDAxFeGFtcGxlLCBDby4xEjAQBgNVBAMMCWxvY2FsaG9zdDCCAiIw
DQYJKoZIhvcNAQEBBQADggIPADCCAgoCggIBAN88T6TFnaKgptfPTs87AcLjiE6T
eO8Kihk7A8eVQqOfAeMN+P8LTNkba6Psfxlw6eoFDEd8YVyjPtYLFrEHgKrwLlhK
WpwEiUV8uXIE9GC4hQ6v1J5iZ1RNPZaqxUsiI6yY2y4+DaMi/0vx95vBS8Nny0jr
JRqNw2FXP1L21qmUu/8el1rYLGC7S8w7ovRQomztpqzCU+Q+vW4stNLQxja5eNPo
eb6IY/qBI8h4RHBWX0VIPD5Jr56C+HXLBD+Jp0nr6aIvLDzRNdX2XU+dGhLaJ1pW
m1TU9R8LoGGCMJjxEbno/cJkvF/ITg71qf2qct2GTf9lmA7Av0WL55CTYQz/yD9L
BXAf7FIAUcDcHASNPQnM9lR1R+mDlqpyGmzV8DnNlXo0cdqSlLCiiAUjHOZMq4HS
ObuzUrFEIv2LdYHAQ9HKZDfxeh3akotYUnahCu/oQdGlvBhFNfLK1hj6YsQ7xZRk
hVSTTwlxBfjrm2FlEuxANB7fjMpOiXlRbRcqOtqAt1hq85QpH3wSbER5WB9Vck/+
M1BfqGgQeu/0POUX87L+DaCIp4Ue60IPJa4utHKGZRL1fy7cCAq/LKPoQMOPjdl6
wfYm4s8FSHqIs2FQCY1gtq+UvrNcfsGt3w7tOxQXS0JMLKcC8bObfo0EtZXrWiz7
giUvHo7L3vwDseMxAgMBAAGjgYkwgYYwHQYDVR0OBBYEFJNpJ/RgcRnGESynStV0
Kcv0hEyEMB8GA1UdIwQYMBaAFFql2rGZ1OUO5h6U6v/8YuLtCfEGMAkGA1UdEwQC
MAAwCwYDVR0PBAQDAgWgMCwGA1UdEQQlMCOCCWxvY2FsaG9zdIcEfwAAAYcQAAAA
AAAAAAAAAAAAAAAAATANBgkqhkiG9w0BAQsFAAOCAgEAI42euF/SUzWGJoP2Jlii
BlnUD6b3N6DRtDWAIQKJrLD1/PlvpDQULsb39T46QBQ/JNGRbW2mrMZbndh3+VVd
ZqjAQeDWLIkRmHeWJB2zdHaQwGzxKt1OANzvtnWaVSnuoYmsOLtM6m9FZVYF2KVr
YVUDUgpLDoww4RansyqcoezqnJDMZq7Sb+sZ9HHEjDd5Od6BzVwGP+zG0cIZWIdg
6p+WWW2yusR8vvUoRNsxDzpGz2DDGvx+upFlJ0o0aBf49cUFcOTitHWsKcZDD7Vy
wy0tAmIfm8HQ7fUuYz7+LrnzkxeqoySvz+AwkWgD7bGPDUzIzek2aZqAMFxWbfqA
9I4BxtUPKXPn6VfieqPk/ykqs8J9WP7YEmvwNdf17UFqGWc1HOVR/BFz/Zx39LKW
LDmt79Jdm72JYBQ05cBpCE981hz8m09ejijmSvaJNEGbrLJWqCWwszNFOLLKvbOp
A7FSZZobpt+UiQos5ybFsrlHUyH/Z6eQsT+ukOlxQe2xSrnPXOXjstAAg6gJ+BcG
vo+Sc8NlbIrRe2XPhI08MENc2GqVa5bi3h+AyP+zeRinleCO3lctJjyzI9GJaiqZ
ATkKsD9Xg3NHciYLqHejlJ1SZTVwMnRldr9yt+TMm1IaaKarmfXiX/uW0KtfQ9Np
LWKAxKEqMBo/wtJk9NiJpVE=
-----END CERTIFICATE-----
