Certificate:
    Data:
        Version: 3 (0x2)
        Serial Number: 3 (0x3)
        Signature Algorithm: sha256WithRSAEncryption
        Issuer: C=US, ST=CA, L=SVL, O=Internet Widgits Pty Ltd
        Validity
            Not Before: Dec  2 21:51:53 2020 GMT
            Not After : Apr 19 21:51:53 2048 GMT
        Subject: C=US, ST=Illinois, L=Chicago, O=Example, Co., CN=localhost
        Subject Public Key Info:
            Public Key Algorithm: rsaEncryption
                RSA Public-Key: (4096 bit)
                Modulus:
                    00:a0:a1:5e:05:53:c5:a7:71:fb:ff:22:d5:d2:49:
                    da:14:8b:54:9b:fb:40:3d:33:38:7d:3e:69:16:1c:
                    1f:c1:88:42:99:d2:ac:8e:3e:60:ca:ac:63:e2:5b:
                    e8:90:e5:4d:1b:e5:0b:40:6d:7d:90:6a:de:7f:ad:
                    97:81:ae:38:2c:07:44:ca:ac:54:d7:dd:41:99:36:
                    ca:38:44:9e:cc:e0:34:c2:44:71:2e:59:60:bf:45:
                    e5:57:af:7d:d2:ca:c5:53:ff:8a:ab:5f:68:cf:74:
                    88:29:99:59:fc:25:8c:06:47:26:77:14:1e:10:c1:
                    78:d6:a1:a5:7f:0d:8d:4a:be:c8:fd:6f:a1:60:3d:
                    e8:0a:27:f9:fe:e1:45:81:7c:e6:be:65:b8:62:ed:
                    ca:1f:fb:7f:08:c0:b4:a6:57:f1:56:32:53:bf:d6:
                    43:75:57:1c:e2:69:8d:96:41:a6:46:a0:49:1d:e8:
                    ab:0a:92:7b:b8:33:b2:c3:7b:6e:2b:53:13:be:91:
                    34:71:e3:d9:52:e4:d5:63:64:f8:a7:b0:a0:23:5c:
                    07:3d:82:9a:6e:bc:0a:95:f1:51:ff:08:75:1c:32:
                    38:67:9a:98:5c:94:08:90:c2:23:cd:bb:ad:86:10:
                    4f:34:b2:28:f8:83:0f:c3:cb:3a:80:a9:2e:9a:3e:
                    45:bf:2c:55:ee:22:d7:e4:a3:d7:b4:0b:7c:fb:30:
                    fa:a7:02:24:04:ba:60:79:2d:1d:01:6c:b1:17:b9:
                    b9:f3:4f:c7:20:26:6d:48:31:b2:6d:27:b8:5d:fc:
                    8a:20:be:29:30:26:18:a4:51:45:3c:47:06:22:fa:
                    9e:c7:43:ac:34:5b:6e:23:08:c9:ea:93:b7:de:5e:
                    36:9a:85:51:8a:01:86:c0:47:52:4f:9b:d6:16:ce:
                    ff:3a:5f:33:ff:f5:24:20:5d:ef:f9:ea:21:fd:05:
                    04:b9:c6:b5:75:67:67:d5:48:70:d0:e8:53:f2:ff:
                    f7:a0:8b:1c:09:bf:5d:08:b2:5d:08:34:00:a3:f1:
                    fc:6d:44:e5:73:eb:6d:24:a2:0f:aa:4a:d1:8f:fe:
                    40:a4:77:94:63:99:82:26:d0:66:a4:a2:97:59:2b:
                    30:18:4b:d1:22:a9:99:02:4c:06:50:ff:12:6e:83:
                    11:ff:08:7f:c2:8e:ae:83:0f:a9:b6:99:3e:cc:8e:
                    c7:a6:17:65:65:0e:9f:7d:48:28:6d:e7:b6:e5:7a:
                    b1:36:04:fe:db:0e:62:3a:e2:a1:bf:b9:76:23:bf:
                    b8:4f:a4:68:bf:03:1c:53:34:55:d0:28:2d:89:10:
                    28:2d:2c:ca:8b:b9:5a:82:f4:5f:b9:eb:ef:aa:f2:
                    31:f0:d5
                Exponent: 65537 (0x10001)
        X509v3 extensions:
            X509v3 Subject Key Identifier: 
                B2:87:7F:58:33:AD:24:C6:F2:07:5D:8E:88:18:BE:61:08:20:29:D1
            X509v3 Authority Key Identifier: 
                keyid:5A:A5:DA:B1:99:D4:E5:0E:E6:1E:94:EA:FF:FC:62:E2:ED:09:F1:06

            X509v3 Basic Constraints: 
                CA:FALSE
            X509v3 Key Usage: 
                Digital Signature, Key Encipherment
            X509v3 Subject Alternative Name: 
                DNS:localhost, IP Address:127.0.0.1
    Signature Algorithm: sha256WithRSAEncryption
         bd:79:29:a5:d1:35:3d:34:61:3e:88:d7:37:66:c0:48:2e:ba:
         8f:ed:56:b6:48:3f:1b:7d:eb:b7:91:0f:13:c3:96:d3:bd:82:
         0c:00:49:3f:1a:44:12:4c:27:f5:48:39:04:bd:66:d8:64:e1:
         5f:c7:01:43:82:38:1e:7f:94:6c:96:00:97:06:b7:d6:d1:0d:
         0a:34:a9:f1:3d:ac:0b:4f:0c:2e:ff:69:3d:53:63:9b:c1:22:
         e8:5a:b9:cd:00:92:a0:b6:cd:c0:21:b2:fc:2e:70:8e:2d:e3:
         ed:4a:f0:84:24:3f:7e:b9:a7:cf:05:1d:15:cc:a3:8a:6e:0d:
         44:28:02:bf:03:31:02:00:eb:1d:6c:60:8e:9c:73:0a:b6:f7:
         ad:61:c4:a5:60:dc:4e:44:79:3e:95:40:44:5a:9b:58:61:3d:
         b6:5f:68:8f:c0:98:3d:a4:b1:41:fb:b4:ad:d3:b6:8b:72:f0:
         c2:ec:8a:65:ac:a7:2e:ea:f7:e5:2c:8d:3a:18:36:d2:48:36:
         5d:a2:1a:52:22:40:a6:da:7d:52:e5:ba:d7:fd:75:63:8b:9b:
         ff:ad:20:bf:a0:f9:d4:e7:f1:b2:cb:a7:09:c7:d0:36:bc:ea:
         be:f1:29:08:22:25:2a:16:3f:22:3b:2b:53:47:73:01:68:d2:
         1e:3d:87:07:6f:ec:c4:33:3e:44:ec:a3:de:32:7e:12:57:15:
         30:d4:6d:be:16:e7:ba:28:0e:8a:79:8a:ab:84:f8:1d:8c:d9:
         da:06:1b:7e:37:10:3f:24:7c:1f:74:bc:0e:44:cf:a6:56:97:
         02:19:b7:a7:f3:5d:46:c8:56:7b:19:b3:42:17:f2:97:cf:15:
         d6:78:8d:90:f9:88:f7:28:71:7d:8d:ff:50:bb:d1:71:bb:23:
         da:53:63:92:7c:d4:a8:be:45:17:d4:6a:e7:e3:75:93:b5:bb:
         fd:38:30:11:ab:ec:f5:7b:6e:f5:17:0b:cc:69:44:79:3f:95:
         85:e8:6b:da:e7:af:b3:f6:e8:73:22:db:75:f8:40:20:fd:cb:
         24:b6:49:b6:69:79:12:8e:73:05:75:a0:de:67:5c:29:05:11:
         3a:b2:8d:f8:ec:2f:fa:99:5e:3a:2b:df:3b:69:1a:c3:05:6c:
         44:3c:a1:12:ab:3c:5b:87:52:a5:44:54:6c:c8:e5:f6:50:dd:
         d7:d4:93:15:67:31:66:58:10:c1:23:98:35:08:6b:56:34:5a:
         71:db:67:e5:41:a8:60:77:c3:30:2a:09:78:37:83:32:37:b1:
         c5:34:b6:54:79:fd:e0:13:a3:16:f5:5f:25:87:8e:5e:c3:93:
         f9:1f:4c:79:51:0f:23:e6
-----BEGIN CERTIFICATE-----
MIIFmTCCA4GgAwIBAgIBAzANBgkqhkiG9w0BAQsFADBLMQswCQYDVQQGEwJVUzEL
MAkGA1UECAwCQ0ExDDAKBgNVBAcMA1NWTDEhMB8GA1UECgwYSW50ZXJuZXQgV2lk
Z2l0cyBQdHkgTHRkMB4XDTIwMTIwMjIxNTE1M1oXDTQ4MDQxOTIxNTE1M1owXTEL
MAkGA1UEBhMCVVMxETAPBgNVBAgMCElsbGlub2lzMRAwDgYDVQQHDAdDaGljYWdv
MRUwEwYDVQQKDAxFeGFtcGxlLCBDby4xEjAQBgNVBAMMCWxvY2FsaG9zdDCCAiIw
DQYJKoZIhvcNAQEBBQADggIPADCCAgoCggIBAKChXgVTxadx+/8i1dJJ2hSLVJv7
QD0zOH0+aRYcH8GIQpnSrI4+YMqsY+Jb6JDlTRvlC0BtfZBq3n+tl4GuOCwHRMqs
VNfdQZk2yjhEnszgNMJEcS5ZYL9F5VevfdLKxVP/iqtfaM90iCmZWfwljAZHJncU
HhDBeNahpX8NjUq+yP1voWA96Aon+f7hRYF85r5luGLtyh/7fwjAtKZX8VYyU7/W
Q3VXHOJpjZZBpkagSR3oqwqSe7gzssN7bitTE76RNHHj2VLk1WNk+KewoCNcBz2C
mm68CpXxUf8IdRwyOGeamFyUCJDCI827rYYQTzSyKPiDD8PLOoCpLpo+Rb8sVe4i
1+Sj17QLfPsw+qcCJAS6YHktHQFssRe5ufNPxyAmbUgxsm0nuF38iiC+KTAmGKRR
RTxHBiL6nsdDrDRbbiMIyeqTt95eNpqFUYoBhsBHUk+b1hbO/zpfM//1JCBd7/nq
If0FBLnGtXVnZ9VIcNDoU/L/96CLHAm/XQiyXQg0AKPx/G1E5XPrbSSiD6pK0Y/+
QKR3lGOZgibQZqSil1krMBhL0SKpmQJMBlD/Em6DEf8If8KOroMPqbaZPsyOx6YX
ZWUOn31IKG3ntuV6sTYE/tsOYjriob+5diO/uE+kaL8DHFM0VdAoLYkQKC0syou5
WoL0X7nr76ryMfDVAgMBAAGjdjB0MB0GA1UdDgQWBBSyh39YM60kxvIHXY6IGL5h
CCAp0TAfBgNVHSMEGDAWgBRapdqxmdTlDuYelOr//GLi7QnxBjAJBgNVHRMEAjAA
MAsGA1UdDwQEAwIFoDAaBgNVHREEEzARgglsb2NhbGhvc3SHBH8AAAEwDQYJKoZI
hvcNAQELBQADggIBAL15KaXRNT00YT6I1zdmwEguuo/tVrZIPxt967eRDxPDltO9
ggwAST8aRBJMJ/VIOQS9Zthk4V/HAUOCOB5/lGyWAJcGt9bRDQo0qfE9rAtPDC7/
aT1TY5vBIuhauc0AkqC2zcAhsvwucI4t4+1K8IQkP365p88FHRXMo4puDUQoAr8D
MQIA6x1sYI6ccwq2961hxKVg3E5EeT6VQERam1hhPbZfaI/AmD2ksUH7tK3Ttoty
8MLsimWspy7q9+UsjToYNtJINl2iGlIiQKbafVLlutf9dWOLm/+tIL+g+dTn8bLL
pwnH0Da86r7xKQgiJSoWPyI7K1NHcwFo0h49hwdv7MQzPkTso94yfhJXFTDUbb4W
57ooDop5iquE+B2M2doGG343ED8kfB90vA5Ez6ZWlwIZt6fzXUbIVnsZs0IX8pfP
FdZ4jZD5iPcocX2N/1C70XG7I9pTY5J81Ki+RRfUaufjdZO1u/04MBGr7PV7bvUX
C8xpRHk/lYXoa9rnr7P26HMi23X4QCD9yyS2SbZpeRKOcwV1oN5nXCkFETqyjfjs
L/qZXjor3ztpGsMFbEQ8oRKrPFuHUqVEVGzI5fZQ3dfUkxVnMWZYEMEjmDUIa1Y0
WnHbZ+VBqGB3wzAqCXg3gzI3scU0tlR5/eAToxb1XyWHjl7Dk/kfTHlRDyPm
-----END CERTIFICATE-----
