Certificate:
    Data:
        Version: 3 (0x2)
        Serial Number: 4 (0x4)
        Signature Algorithm: sha256WithRSAEncryption
        Issuer: C=US, ST=CA, L=SVL, O=Internet Widgits Pty Ltd
        Validity
            Not Before: Oct  5 22:59:52 2020 GMT
            Not After : May 27 22:59:52 2045 GMT
        Subject: C=US, ST=CA, L=Sunnyvale, O=Internet Widgits Pty Ltd, OU=X, CN=XX
        Subject Public Key Info:
            Public Key Algorithm: rsaEncryption
                RSA Public-Key: (4096 bit)
                Modulus:
                    00:be:ab:c4:0b:d6:57:f2:22:62:8f:31:0d:7a:ac:
                    70:d6:0a:b8:65:18:26:de:8e:00:18:34:62:6c:ed:
                    f7:6f:ed:68:14:31:de:6a:8f:f0:dd:74:1d:16:06:
                    fe:c4:20:b4:80:39:5d:19:8f:29:dd:e4:31:e8:c3:
                    39:92:60:72:ad:1c:5e:0f:b1:f9:52:23:9f:42:1d:
                    f0:41:bb:a2:3b:4d:65:eb:03:ef:c9:86:27:34:e2:
                    78:6f:31:44:f8:c7:c4:57:ad:59:3f:a2:8f:bc:87:
                    5f:29:bc:76:0e:39:cd:68:a4:b1:64:5d:97:c6:c7:
                    c8:72:98:21:19:6e:57:11:b8:50:fc:be:02:b5:1d:
                    51:15:65:0c:42:d9:30:d1:ff:68:8e:6f:e9:c5:52:
                    cf:5a:9f:b7:8a:b7:f6:a3:17:5a:7f:29:a1:32:fb:
                    f6:59:29:a1:81:34:39:20:21:f4:fb:64:79:76:57:
                    73:87:3a:fc:9c:5d:f2:44:e4:be:8b:ed:c9:67:1d:
                    e1:57:d6:5f:32:b1:14:90:79:68:dc:f6:0a:5a:bf:
                    92:18:56:e4:62:59:1c:56:5d:0c:aa:8a:92:14:b6:
                    9e:3a:61:5c:86:b1:29:2d:67:11:d3:6d:62:bb:2b:
                    65:79:a6:17:8c:b2:c4:ab:d1:4c:57:e2:d6:5d:20:
                    39:11:2f:8c:79:3c:f4:ab:94:17:c1:97:21:c6:0f:
                    ee:d7:9c:0b:cd:0c:a5:98:34:45:51:d0:c7:53:73:
                    bd:f7:f6:0f:cc:21:58:be:ca:6d:14:b7:47:5f:62:
                    29:b9:dc:e9:b5:a6:10:3b:50:67:26:df:1f:0a:e2:
                    aa:f6:4b:e3:71:93:57:a4:17:46:7d:fc:78:6c:6e:
                    9d:34:11:84:24:ca:5b:16:c1:a9:ae:d3:96:d8:a9:
                    4f:35:22:5e:43:54:1d:3d:dd:63:d5:e1:a3:0f:46:
                    dd:fa:43:96:8f:2b:67:55:6a:7e:b3:52:ae:52:56:
                    4c:30:3a:5b:c0:43:77:f0:60:55:c9:1e:1b:5a:94:
                    d5:f9:2c:8f:61:e6:a4:74:20:db:6e:f8:11:41:00:
                    25:e2:62:43:7a:51:f9:fa:83:95:85:c6:d3:c4:e5:
                    28:11:35:43:84:05:b1:53:95:68:20:b4:85:9c:df:
                    77:aa:1e:d3:7d:08:13:29:d7:82:53:bb:5a:36:ab:
                    52:06:c4:95:aa:ac:9a:9e:25:a9:09:89:7c:48:16:
                    8c:8e:4b:c4:9c:d2:a4:f5:3a:07:f3:00:22:60:f9:
                    6c:00:5e:5a:ad:08:1d:5b:26:3b:5f:fc:51:20:98:
                    97:1a:f1:39:15:ae:85:81:26:fb:77:a1:9c:a8:5c:
                    9e:0e:c1
                Exponent: 65537 (0x10001)
        X509v3 extensions:
            X509v3 Subject Key Identifier: 
                59:2B:55:82:7F:3E:7C:09:B5:32:F2:F8:6A:88:17:13:46:90:17:54
            X509v3 Authority Key Identifier: 
                keyid:5A:A5:DA:B1:99:D4:E5:0E:E6:1E:94:EA:FF:FC:62:E2:ED:09:F1:06

            X509v3 Basic Constraints: 
                CA:FALSE
            X509v3 Key Usage: 
                Digital Signature, Key Encipherment
            X509v3 Subject Alternative Name: 
                URI:spiffe://foo.bar.com/server/workload/1
    Signature Algorithm: sha256WithRSAEncryption
         74:bb:61:80:e7:24:5b:d0:33:88:db:bd:26:95:7f:c7:75:57:
         21:6a:8f:a3:a2:f4:d0:54:e9:76:7e:d9:a3:7b:60:bf:18:40:
         29:9b:ff:b9:b7:5b:b9:63:eb:ea:db:03:fe:90:55:f0:08:66:
         9d:f3:c0:25:24:ba:02:8f:dd:93:65:58:08:5c:30:ed:06:5b:
         0a:03:fc:9a:eb:f2:41:8e:e5:3e:ac:7a:d7:70:93:88:8b:75:
         68:49:dc:d0:b3:75:6b:66:44:a2:7c:fa:40:14:a1:d6:39:f3:
         af:f0:3a:0c:9e:63:01:dc:2c:3c:f4:18:a7:f0:96:5a:3f:94:
         76:47:7b:65:24:0e:1d:2e:8e:8d:7c:70:c9:2f:73:de:9c:ba:
         1d:f5:24:0c:30:59:f5:83:f6:ad:3b:b2:c2:b3:7e:cd:ab:00:
         40:6b:79:8c:54:21:30:be:19:89:4c:3e:4a:3b:7f:41:92:ea:
         b7:49:78:4f:d9:dd:bc:c0:35:8c:f6:3f:2f:27:db:b3:a9:25:
         ce:99:a0:69:4e:72:1c:ed:59:12:10:02:90:63:11:51:23:83:
         20:92:62:df:e4:ce:20:cf:89:5b:66:a2:70:85:90:f5:a5:0b:
         92:c7:00:0b:90:05:58:a2:f0:ae:bd:81:3f:c8:cb:11:3f:b8:
         66:75:79:27:e0:a3:b7:bf:00:ae:b6:7e:b2:16:5c:8e:1d:ef:
         57:7e:13:7e:45:c6:68:03:28:72:85:06:69:c0:4d:08:c9:59:
         8e:56:5f:8e:82:6f:13:6c:f3:6e:7b:63:81:ff:8f:91:fc:32:
         64:b5:84:bb:ee:5f:a7:5c:70:b6:52:58:c4:6e:b9:db:20:44:
         70:be:31:ba:f4:3b:b8:50:47:f3:ca:1b:f1:41:62:4e:f5:6a:
         73:c2:79:a9:f7:ce:79:0f:0b:b0:ed:11:16:d3:4b:45:77:77:
         9e:75:95:50:a0:39:fe:b8:ae:73:f4:9b:17:e1:3e:89:a2:06:
         5c:1c:85:76:ba:24:90:1a:d8:02:91:f0:b3:98:d4:53:ba:fd:
         5b:77:ca:74:fb:45:b2:f8:58:60:23:bf:d3:bb:c2:9a:04:20:
         f2:34:f5:52:4d:e1:6a:d9:c4:ff:b5:f0:be:bd:9a:01:46:7a:
         d4:96:0c:2b:2a:6c:dd:a9:66:dc:e9:4c:f0:06:6d:89:88:c8:
         33:96:d9:32:44:2e:83:3e:17:75:3d:1d:f0:30:9f:57:72:77:
         40:9b:59:f6:d8:fc:48:ca:22:ed:bc:93:b8:f7:fd:07:69:67:
         29:b9:b8:8b:cd:15:4f:8c:be:dd:ce:aa:e2:ea:fa:9a:f6:30:
         f6:a0:2b:f2:85:2d:94:62
-----BEGIN CERTIFICATE-----
MIIFvzCCA6egAwIBAgIBBDANBgkqhkiG9w0BAQsFADBLMQswCQYDVQQGEwJVUzEL
MAkGA1UECAwCQ0ExDDAKBgNVBAcMA1NWTDEhMB8GA1UECgwYSW50ZXJuZXQgV2lk
Z2l0cyBQdHkgTHRkMB4XDTIwMTAwNTIyNTk1MloXDTQ1MDUyNzIyNTk1MlowajEL
MAkGA1UEBhMCVVMxCzAJBgNVBAgMAkNBMRIwEAYDVQQHDAlTdW5ueXZhbGUxITAf
BgNVBAoMGEludGVybmV0IFdpZGdpdHMgUHR5IEx0ZDEKMAgGA1UECwwBWDELMAkG
A1UEAwwCWFgwggIiMA0GCSqGSIb3DQEBAQUAA4ICDwAwggIKAoICAQC+q8QL1lfy
ImKPMQ16rHDWCrhlGCbejgAYNGJs7fdv7WgUMd5qj/DddB0WBv7EILSAOV0Zjynd
5DHowzmSYHKtHF4PsflSI59CHfBBu6I7TWXrA+/Jhic04nhvMUT4x8RXrVk/oo+8
h18pvHYOOc1opLFkXZfGx8hymCEZblcRuFD8vgK1HVEVZQxC2TDR/2iOb+nFUs9a
n7eKt/ajF1p/KaEy+/ZZKaGBNDkgIfT7ZHl2V3OHOvycXfJE5L6L7clnHeFX1l8y
sRSQeWjc9gpav5IYVuRiWRxWXQyqipIUtp46YVyGsSktZxHTbWK7K2V5pheMssSr
0UxX4tZdIDkRL4x5PPSrlBfBlyHGD+7XnAvNDKWYNEVR0MdTc7339g/MIVi+ym0U
t0dfYim53Om1phA7UGcm3x8K4qr2S+Nxk1ekF0Z9/Hhsbp00EYQkylsWwamu05bY
qU81Il5DVB093WPV4aMPRt36Q5aPK2dVan6zUq5SVkwwOlvAQ3fwYFXJHhtalNX5
LI9h5qR0INtu+BFBACXiYkN6Ufn6g5WFxtPE5SgRNUOEBbFTlWggtIWc33eqHtN9
CBMp14JTu1o2q1IGxJWqrJqeJakJiXxIFoyOS8Sc0qT1OgfzACJg+WwAXlqtCB1b
Jjtf/FEgmJca8TkVroWBJvt3oZyoXJ4OwQIDAQABo4GOMIGLMB0GA1UdDgQWBBRZ
K1WCfz58CbUy8vhqiBcTRpAXVDAfBgNVHSMEGDAWgBRapdqxmdTlDuYelOr//GLi
7QnxBjAJBgNVHRMEAjAAMAsGA1UdDwQEAwIFoDAxBgNVHREEKjAohiZzcGlmZmU6
Ly9mb28uYmFyLmNvbS9zZXJ2ZXIvd29ya2xvYWQvMTANBgkqhkiG9w0BAQsFAAOC
AgEAdLthgOckW9AziNu9JpV/x3VXIWqPo6L00FTpdn7Zo3tgvxhAKZv/ubdbuWPr
6tsD/pBV8AhmnfPAJSS6Ao/dk2VYCFww7QZbCgP8muvyQY7lPqx613CTiIt1aEnc
0LN1a2ZEonz6QBSh1jnzr/A6DJ5jAdwsPPQYp/CWWj+Udkd7ZSQOHS6OjXxwyS9z
3py6HfUkDDBZ9YP2rTuywrN+zasAQGt5jFQhML4ZiUw+Sjt/QZLqt0l4T9ndvMA1
jPY/Lyfbs6klzpmgaU5yHO1ZEhACkGMRUSODIJJi3+TOIM+JW2aicIWQ9aULkscA
C5AFWKLwrr2BP8jLET+4ZnV5J+Cjt78ArrZ+shZcjh3vV34TfkXGaAMocoUGacBN
CMlZjlZfjoJvE2zzbntjgf+PkfwyZLWEu+5fp1xwtlJYxG652yBEcL4xuvQ7uFBH
88ob8UFiTvVqc8J5qffOeQ8LsO0RFtNLRXd3nnWVUKA5/riuc/SbF+E+iaIGXByF
drokkBrYApHws5jUU7r9W3fKdPtFsvhYYCO/07vCmgQg8jT1Uk3hatnE/7Xwvr2a
AUZ61JYMKyps3alm3OlM8AZtiYjIM5bZMkQugz4XdT0d8DCfV3J3QJtZ9tj8SMoi
7byTuPf9B2lnKbm4i80VT4y+3c6q4ur6mvYw9qAr8oUtlGI=
-----END CERTIFICATE-----
