Certificate:
    Data:
        Version: 3 (0x2)
        Serial Number: 5 (0x5)
        Signature Algorithm: sha256WithRSAEncryption
        Issuer: C=US, ST=CA, L=SVL, O=Internet Widgits Pty Ltd
        Validity
            Not Before: Dec 15 18:05:59 2020 GMT
            Not After : May  2 18:05:59 2048 GMT
        Subject: C=US, ST=Illinois, L=Chicago, O=Example, Co., CN=localhost
        Subject Public Key Info:
            Public Key Algorithm: rsaEncryption
                RSA Public-Key: (4096 bit)
                Modulus:
                    00:d3:4d:01:08:9d:80:de:15:fa:0a:52:ed:2c:f6:
                    4b:9d:c5:67:2d:b6:41:33:d7:5b:b4:fd:f0:a8:5c:
                    dd:8a:8d:1f:2d:12:5d:47:88:09:d4:96:ee:63:10:
                    f9:9d:9a:6c:34:c4:ec:a9:0d:95:6c:48:bc:17:d0:
                    77:53:93:f8:44:8a:0b:0b:a2:4d:1d:53:f7:55:a7:
                    ed:6a:35:ad:1d:af:79:bd:d5:c6:5b:96:24:9e:4d:
                    d8:e9:21:93:e1:93:3b:5d:c4:e3:90:1a:36:d0:f7:
                    bb:8c:22:e9:d2:f8:29:19:bf:24:c6:52:21:0e:d6:
                    3a:73:48:ba:e7:81:34:ba:23:21:57:c3:51:0e:59:
                    51:9f:a6:07:56:17:c4:aa:1b:7b:6c:36:6b:ab:32:
                    5e:2e:f7:70:dc:eb:f3:da:3b:39:4e:a4:8c:bf:40:
                    72:ef:00:1e:46:c9:07:6a:93:4c:36:b7:c3:2e:7c:
                    c5:c1:85:9f:6b:4d:2d:fd:3c:9b:9a:cf:52:b2:fa:
                    ba:f8:ce:cc:8b:dc:57:7b:ed:37:69:c9:80:dc:a6:
                    2c:a7:e4:4b:8c:77:cb:2e:28:65:64:61:a4:c8:33:
                    d9:f8:7d:b7:7c:4f:b7:f4:07:5a:89:ae:2a:59:8c:
                    ac:00:c7:ce:b0:d0:9b:cd:4d:83:39:55:bb:72:0f:
                    62:d4:5f:8b:c3:c7:e2:79:95:53:eb:a0:26:0d:52:
                    7b:4d:40:56:66:2b:55:67:f5:1a:c9:e8:a8:49:bd:
                    e7:e4:31:9a:e1:8d:80:f2:cc:ab:3d:70:f6:fe:75:
                    cb:aa:1b:12:d0:6f:d3:c8:df:f1:bd:ce:2b:21:42:
                    e5:2c:bd:c6:c8:c4:bb:4a:3d:92:48:0d:49:a8:96:
                    c0:51:ed:30:64:81:dd:ce:05:d4:ff:07:87:59:0b:
                    13:41:8e:1d:58:e4:47:0c:00:97:12:e4:67:94:24:
                    67:ef:ed:1e:85:89:df:85:78:10:1f:7f:b2:e8:af:
                    e7:0f:c7:ec:aa:01:67:b6:0a:9a:23:83:90:1d:0a:
                    2a:37:80:c3:26:d7:f1:24:29:b3:d8:37:7c:5c:f8:
                    e3:08:96:1a:34:2d:fa:ff:75:e8:70:25:e2:ab:51:
                    9d:f7:8a:23:52:89:02:c8:71:ea:cd:a2:89:b6:eb:
                    6e:c9:fd:fb:dc:63:e8:f9:db:d7:57:d2:0c:fc:56:
                    9c:16:a8:67:fe:17:88:07:e8:f8:c5:7a:33:72:ad:
                    b4:5a:43:5b:49:be:79:8b:00:18:83:f7:19:00:07:
                    94:2c:38:96:61:a7:55:a8:30:db:7e:07:f6:c5:a3:
                    65:1e:93:2d:6b:5e:d9:a6:0f:fa:c2:19:9b:59:4c:
                    41:ba:07
                Exponent: 65537 (0x10001)
        X509v3 extensions:
            X509v3 Subject Key Identifier: 
                F3:DC:6A:5B:B7:CE:E9:E1:4D:3E:C4:AE:B7:8E:39:E3:6D:CA:AF:C7
            X509v3 Authority Key Identifier: 
                keyid:5A:A5:DA:B1:99:D4:E5:0E:E6:1E:94:EA:FF:FC:62:E2:ED:09:F1:06

            X509v3 Basic Constraints: 
                CA:FALSE
            X509v3 Key Usage: 
                Digital Signature, Key Encipherment
            X509v3 Subject Alternative Name: 
                DNS:localhost
    Signature Algorithm: sha256WithRSAEncryption
         54:13:3d:55:d3:4b:d8:85:f0:54:a8:33:5c:a1:9f:87:79:31:
         34:7e:52:b9:46:ea:97:43:fd:0a:9b:ae:2c:8b:74:cd:51:d5:
         63:b3:b0:b4:19:a1:da:73:b4:e2:47:0c:d9:33:4a:c6:aa:27:
         41:bc:4d:15:74:42:59:eb:41:8e:28:49:f0:55:89:13:f8:f0:
         35:1f:e9:b2:ae:48:79:e7:15:a2:aa:59:e0:fd:91:c8:7f:ba:
         aa:a4:2e:77:2a:e4:62:fe:c2:83:51:dc:58:83:f8:7f:b2:47:
         68:8b:1f:9d:9b:12:25:f2:0f:7d:06:a4:9a:be:a3:af:2d:27:
         32:4a:20:fe:5f:98:d0:5d:6a:10:c9:04:49:54:26:60:20:6e:
         38:f2:91:a4:24:e7:ed:d2:e4:aa:88:7e:9c:6d:0a:1e:30:97:
         a9:9c:45:35:09:fc:45:6c:32:d0:db:79:04:fa:03:7c:36:e5:
         27:72:1d:77:a1:d4:12:86:53:bf:93:4e:f7:da:7a:a1:4b:5b:
         42:e4:6b:9b:a5:58:f2:ef:30:2e:a6:6f:f7:63:fd:16:b0:35:
         81:99:3d:41:dc:da:34:46:ea:1f:02:cc:5e:dc:67:1c:62:68:
         76:45:5b:ea:f3:2f:a5:0f:2e:b8:d0:df:ad:8f:3b:03:b4:36:
         21:d4:4d:99:09:76:22:a4:61:b4:59:ca:8b:42:5d:64:2a:9a:
         4f:7f:67:65:38:4a:c6:e7:8b:ff:36:0d:42:4b:60:03:77:99:
         71:1f:ac:f4:83:bb:06:5c:22:fa:ed:4c:c5:37:22:22:11:85:
         1a:ab:06:e3:14:c8:71:bf:79:1f:b4:22:64:ea:65:5e:99:c5:
         ca:3a:1e:d2:22:96:24:df:65:b1:42:7e:72:21:6b:de:49:cd:
         09:45:4d:3e:ff:45:22:f4:01:d5:09:5b:dd:22:cc:25:8f:b2:
         5e:b3:35:f8:b3:6d:6e:2b:bd:98:f2:eb:5b:0e:58:31:f3:90:
         ec:d9:41:9d:e4:4d:e7:6a:ff:32:63:d1:45:f0:fd:a6:7d:34:
         16:e4:c8:0c:79:39:5d:46:e1:28:f1:13:49:a6:02:07:a2:ca:
         de:ae:4a:3a:f7:0b:e4:27:49:33:c8:29:2f:cd:6f:0e:5a:be:
         e0:5d:c0:98:7e:15:97:ea:a5:ba:84:3b:ab:8d:aa:81:d7:7f:
         df:7c:b9:e7:11:6b:7f:82:6e:62:57:d9:ba:25:60:1d:93:49:
         eb:48:91:88:2c:22:74:dc:50:cf:6c:44:bd:04:84:fb:97:53:
         57:62:56:8b:b1:5c:a2:06:ef:c4:01:21:d6:73:4f:58:79:60:
         75:09:53:7d:cb:8c:a2:86
-----BEGIN CERTIFICATE-----
MIIFkzCCA3ugAwIBAgIBBTANBgkqhkiG9w0BAQsFADBLMQswCQYDVQQGEwJVUzEL
MAkGA1UECAwCQ0ExDDAKBgNVBAcMA1NWTDEhMB8GA1UECgwYSW50ZXJuZXQgV2lk
Z2l0cyBQdHkgTHRkMB4XDTIwMTIxNTE4MDU1OVoXDTQ4MDUwMjE4MDU1OVowXTEL
MAkGA1UEBhMCVVMxETAPBgNVBAgMCElsbGlub2lzMRAwDgYDVQQHDAdDaGljYWdv
MRUwEwYDVQQKDAxFeGFtcGxlLCBDby4xEjAQBgNVBAMMCWxvY2FsaG9zdDCCAiIw
DQYJKoZIhvcNAQEBBQADggIPADCCAgoCggIBANNNAQidgN4V+gpS7Sz2S53FZy22
QTPXW7T98Khc3YqNHy0SXUeICdSW7mMQ+Z2abDTE7KkNlWxIvBfQd1OT+ESKCwui
TR1T91Wn7Wo1rR2veb3VxluWJJ5N2Okhk+GTO13E45AaNtD3u4wi6dL4KRm/JMZS
IQ7WOnNIuueBNLojIVfDUQ5ZUZ+mB1YXxKobe2w2a6syXi73cNzr89o7OU6kjL9A
cu8AHkbJB2qTTDa3wy58xcGFn2tNLf08m5rPUrL6uvjOzIvcV3vtN2nJgNymLKfk
S4x3yy4oZWRhpMgz2fh9t3xPt/QHWomuKlmMrADHzrDQm81NgzlVu3IPYtRfi8PH
4nmVU+ugJg1Se01AVmYrVWf1GsnoqEm95+QxmuGNgPLMqz1w9v51y6obEtBv08jf
8b3OKyFC5Sy9xsjEu0o9kkgNSaiWwFHtMGSB3c4F1P8Hh1kLE0GOHVjkRwwAlxLk
Z5QkZ+/tHoWJ34V4EB9/suiv5w/H7KoBZ7YKmiODkB0KKjeAwybX8SQps9g3fFz4
4wiWGjQt+v916HAl4qtRnfeKI1KJAshx6s2iibbrbsn9+9xj6Pnb11fSDPxWnBao
Z/4XiAfo+MV6M3KttFpDW0m+eYsAGIP3GQAHlCw4lmGnVagw234H9sWjZR6TLWte
2aYP+sIZm1lMQboHAgMBAAGjcDBuMB0GA1UdDgQWBBTz3Gpbt87p4U0+xK63jjnj
bcqvxzAfBgNVHSMEGDAWgBRapdqxmdTlDuYelOr//GLi7QnxBjAJBgNVHRMEAjAA
MAsGA1UdDwQEAwIFoDAUBgNVHREEDTALgglsb2NhbGhvc3QwDQYJKoZIhvcNAQEL
BQADggIBAFQTPVXTS9iF8FSoM1yhn4d5MTR+UrlG6pdD/QqbriyLdM1R1WOzsLQZ
odpztOJHDNkzSsaqJ0G8TRV0QlnrQY4oSfBViRP48DUf6bKuSHnnFaKqWeD9kch/
uqqkLncq5GL+woNR3FiD+H+yR2iLH52bEiXyD30GpJq+o68tJzJKIP5fmNBdahDJ
BElUJmAgbjjykaQk5+3S5KqIfpxtCh4wl6mcRTUJ/EVsMtDbeQT6A3w25SdyHXeh
1BKGU7+TTvfaeqFLW0Lka5ulWPLvMC6mb/dj/RawNYGZPUHc2jRG6h8CzF7cZxxi
aHZFW+rzL6UPLrjQ362POwO0NiHUTZkJdiKkYbRZyotCXWQqmk9/Z2U4Ssbni/82
DUJLYAN3mXEfrPSDuwZcIvrtTMU3IiIRhRqrBuMUyHG/eR+0ImTqZV6Zxco6HtIi
liTfZbFCfnIha95JzQlFTT7/RSL0AdUJW90izCWPsl6zNfizbW4rvZjy61sOWDHz
kOzZQZ3kTedq/zJj0UXw/aZ9NBbkyAx5OV1G4SjxE0mmAgeiyt6uSjr3C+QnSTPI
KS/Nbw5avuBdwJh+FZfqpbqEO6uNqoHXf998uecRa3+CbmJX2bolYB2TSetIkYgs
InTcUM9sRL0EhPuXU1diVouxXKIG78QBIdZzT1h5YHUJU33LjKKG
-----END CERTIFICATE-----
